MODULE Linux x86_64 3E1AE9CC94840E34148F4DE605926C000 demoapp
FUNC 3e836 4cc 0 main
FUNC 3ed02 e 0 std::move<main(int, char**)::<lambda(std::__cxx11::string, std::__cxx11::string)>&>
FUNC 3ed10 99 0 std::function<void(std::__cxx11::basic_string<char, std::char_traits<char>, std::allocator<char> >, std::__cxx11::basic_string<char, std::char_traits<char>, std::allocator<char> >)>::function<main(int, char**)::<lambda(std::__cxx11::string, std::__cxx11::string)>, void, void>
FUNC 3eda9 e 0 std::move<main(int, char**)::<lambda()>&>
FUNC 3edb8 99 0 std::function<void()>::function<main(int, char**)::<lambda()>, void, void>
FUNC 3ee51 f 0 std::_Function_base::_Base_manager<main(int, char**)::<lambda(std::__cxx11::string, std::__cxx11::string)> >::_M_not_empty_function<main(int, char**)::<lambda(std::__cxx11::string, std::__cxx11::string)> >
FUNC 3ee60 3f 0 std::_Function_base::_Base_manager<main(int, char**)::<lambda(std::__cxx11::string, std::__cxx11::string)> >::_M_init_functor
FUNC 3ee9f ba 0 std::_Function_handler<void(std::__cxx11::basic_string<char, std::char_traits<char>, std::allocator<char> >, std::__cxx11::basic_string<char, std::char_traits<char>, std::allocator<char> >), main(int, char**)::<lambda(std::__cxx11::string, std::__cxx11::string)> >::_M_invoke
FUNC 3ef59 ae 0 std::_Function_base::_Base_manager<main(int, char**)::<lambda(std::__cxx11::string, std::__cxx11::string)> >::_M_manager
FUNC 3f007 f 0 std::_Function_base::_Base_manager<main(int, char**)::<lambda()> >::_M_not_empty_function<main(int, char**)::<lambda()> >
FUNC 3f016 3f 0 std::_Function_base::_Base_manager<main(int, char**)::<lambda()> >::_M_init_functor
FUNC 3f055 23 0 std::_Function_handler<void(), main(int, char**)::<lambda()> >::_M_invoke
FUNC 3f078 ae 0 std::_Function_base::_Base_manager<main(int, char**)::<lambda()> >::_M_manager
FUNC 3f126 4c 0 std::_Function_base::_Base_manager<main(int, char**)::<lambda(std::__cxx11::string, std::__cxx11::string)> >::_M_init_functor
FUNC 3f172 2a 0 std::_Function_base::_Base_manager<main(int, char**)::<lambda(std::__cxx11::string, std::__cxx11::string)> >::_M_get_pointer
FUNC 3f19c 1a 0 std::_Any_data::_M_access<main(int, char**)::<lambda(std::__cxx11::string, std::__cxx11::string)>*>
FUNC 3f1b6 4c 0 std::_Function_base::_Base_manager<main(int, char**)::<lambda(std::__cxx11::string, std::__cxx11::string)> >::_M_clone
FUNC 3f202 1b 0 std::_Function_base::_Base_manager<main(int, char**)::<lambda(std::__cxx11::string, std::__cxx11::string)> >::_M_destroy
FUNC 3f21d 4c 0 std::_Function_base::_Base_manager<main(int, char**)::<lambda()> >::_M_init_functor
FUNC 3f269 2a 0 std::_Function_base::_Base_manager<main(int, char**)::<lambda()> >::_M_get_pointer
FUNC 3f294 1a 0 std::_Any_data::_M_access<main(int, char**)::<lambda()>*>
FUNC 3f2ae 4c 0 std::_Function_base::_Base_manager<main(int, char**)::<lambda()> >::_M_clone
FUNC 3f2fa 1b 0 std::_Function_base::_Base_manager<main(int, char**)::<lambda()> >::_M_destroy
FUNC 3f316 1a 0 std::_Any_data::_M_access<main(int, char**)::<lambda(std::__cxx11::string, std::__cxx11::string)> >
FUNC 3f330 e 0 std::__addressof<const main(int, char**)::<lambda(std::__cxx11::string, std::__cxx11::string)> >
FUNC 3f33e 1a 0 std::_Any_data::_M_access<main(int, char**)::<lambda(std::__cxx11::string, std::__cxx11::string)> >
FUNC 3f358 1a 0 std::_Any_data::_M_access<main(int, char**)::<lambda()> >
FUNC 3f372 e 0 std::__addressof<const main(int, char**)::<lambda()> >
FUNC 3f380 1a 0 std::_Any_data::_M_access<main(int, char**)::<lambda()> >
FUNC 3f39a 12 0 operator new
FUNC 3f3ac 14 0 std::operator&
FUNC 3f3c0 43 0 QtPrivate::RefCount::deref
FUNC 3f404 e 0 std::_Any_data::_M_access
FUNC 3f412 e 0 std::_Any_data::_M_access
FUNC 3f420 17 0 std::_Function_base::_Function_base
FUNC 3f438 36 0 std::_Function_base::~_Function_base
FUNC 3f46e 3b 0 Stats::~Stats
FUNC 3f4aa 6d 0 crashup::Crashup::~Crashup
FUNC 3f518 1b 0 std::function<void(std::__cxx11::basic_string<char, std::char_traits<char>, std::allocator<char> >, std::__cxx11::basic_string<char, std::char_traits<char>, std::allocator<char> >)>::~function
FUNC 3f534 1b 0 std::function<void()>::~function
FUNC 3f550 1a 0 QBasicAtomicInteger<int>::load
FUNC 3f56a 1a 0 QBasicAtomicInteger<int>::deref
FUNC 3f584 b 0 std::binary_function<std::__cxx11::basic_string<char, std::char_traits<char>, std::allocator<char> >, std::__cxx11::basic_string<char, std::char_traits<char>, std::allocator<char> >, void>::binary_function
FUNC 3f590 1b 0 std::_Maybe_unary_or_binary_function<void, std::__cxx11::basic_string<char, std::char_traits<char>, std::allocator<char> >, std::__cxx11::basic_string<char, std::char_traits<char>, std::allocator<char> > >::_Maybe_unary_or_binary_function
FUNC 3f5ac b 0 std::_Maybe_unary_or_binary_function<void>::_Maybe_unary_or_binary_function
FUNC 3f5b7 36 0 QAtomicOps<int>::load<int>
FUNC 3f5ed 1f 0 QAtomicOps<int>::deref<int>
FUNC 3f60c e 0 std::forward<std::__cxx11::basic_string<char> >
FUNC 3f61a 1f 0 std::__atomic_base<int>::operator--
FUNC 3f63a 1a 0 std::_Any_data::_M_access<const std::type_info*>
FUNC 3f654 51 0 WidgetTracker::~WidgetTracker
FUNC 3f6a6 26 0 WidgetTracker::~WidgetTracker
FUNC 3f6cc 47 0 QList<QWidget*>::~QList
FUNC 3f714 b 0 QListSpecialMethods<QWidget*>::~QListSpecialMethods
FUNC 3f720 5e 0 QList<QWidget*>::dealloc
FUNC 3f77e 13 0 QList<QWidget*>::node_destruct
FUNC 3f792 11c 0 CrashingWidget::CrashingWidget
FUNC 3f8ae 87 0 CrashingWidget::~CrashingWidget
FUNC 3f93e 26 0 CrashingWidget::~CrashingWidget
FUNC 3f96a 8a 0 CrashingWidget::on_exceptionButton_clicked
FUNC 3f9f4 5f 0 CrashingWidget::on_segfaultButton_clicked
FUNC 3fa54 17d 0 CrashingWidget::on_statsButton_clicked
FUNC 3fbd2 10f 0 CrashingWidget::on_downloadButton_clicked
FUNC 3fce2 1f 0 CrashingWidget::on_uploadButton_clicked
FUNC 3fd02 1d 0 std::exception::exception
FUNC 3fd20 1c 0 QArrayData::data
FUNC 3fd3c 34 0 QByteArray::~QByteArray
FUNC 3fd70 1d 0 QByteArray::constData
FUNC 3fd8e 29 0 QString::toUtf8
FUNC 3fdb8 1a 0 QString::QString
FUNC 3fdd2 19 0 QString::isEmpty
FUNC 3fdec 34 0 QString::~QString
FUNC 3fe20 24 0 QSize::QSize
FUNC 3fe44 4f 0 QRect::QRect
FUNC 3fe94 19 0 QFlags<Qt::WindowType>::QFlags
FUNC 3feae 3c 0 QWidget::resize
FUNC 3feea 18 0 std::_Function_base::_M_empty
FUNC 3ff02 21 0 std::exception::exception
FUNC 3ff24 38 0 QException::QException
FUNC 3ff5c 38 0 TestException::TestException
FUNC 3ff94 45 0 TestException::raise
FUNC 3ffda 33 0 TestException::clone
FUNC 4062e ea6 0 Ui_CrashingWidget::setupUi
FUNC 414d4 450 0 Ui_CrashingWidget::retranslateUi
FUNC 41924 2d 0 QException::QException
FUNC 41952 2d 0 TestException::TestException
FUNC 4197f 25 0 QTypedArrayData<char>::deallocate
FUNC 419a4 1a 0 QTypedArrayData<char>::data
FUNC 419be 25 0 QTypedArrayData<short unsigned int>::deallocate
FUNC 419e4 e 0 QStaticStringData<14>::data_ptr
FUNC 419f2 e 0 QStaticStringData<13>::data_ptr
FUNC 41a00 e 0 QStaticStringData<8>::data_ptr
FUNC 41a0e e 0 QStaticStringData<11>::data_ptr
FUNC 41a1c e 0 QStaticStringData<12>::data_ptr
FUNC 41a2a e 0 QStaticStringData<15>::data_ptr
FUNC 41a38 e 0 QStaticStringData<5>::data_ptr
FUNC 41a46 e 0 QStaticStringData<7>::data_ptr
FUNC 41a54 e 0 QStaticStringData<3>::data_ptr
FUNC 41a62 e 0 QStaticStringData<17>::data_ptr
FUNC 41a70 e 0 QStaticStringData<9>::data_ptr
FUNC 41a7e 97 0 std::function<void(std::__cxx11::basic_string<char, std::char_traits<char>, std::allocator<char> >, std::__cxx11::basic_string<char, std::char_traits<char>, std::allocator<char> >)>::function
FUNC 41b16 27 0 std::function<void()>::function
FUNC 41b3e 48 0 std::function<void()>::operator=
FUNC 41b86 6a 0 std::function<void(std::__cxx11::basic_string<char, std::char_traits<char>, std::allocator<char> >, std::__cxx11::basic_string<char, std::char_traits<char>, std::allocator<char> >)>::operator()
FUNC 41bf0 34 0 std::function<void()>::operator()
FUNC 41c24 1d 0 std::function<void(std::__cxx11::basic_string<char, std::char_traits<char>, std::allocator<char> >, std::__cxx11::basic_string<char, std::char_traits<char>, std::allocator<char> >)>::operator bool
FUNC 41c42 97 0 std::function<void()>::function
FUNC 41cda 5c 0 std::function<void()>::swap
FUNC 41d36 1d 0 std::function<void()>::operator bool
FUNC 41d53 e 0 std::move<std::_Any_data&>
FUNC 41d61 6a 0 std::swap<std::_Any_data>
FUNC 41dcb e 0 std::move<bool (*&)(std::_Any_data&, const std::_Any_data&, std::_Manager_operation)>
FUNC 41dd9 52 0 std::swap<bool (*)(std::_Any_data&, const std::_Any_data&, std::_Manager_operation)>
FUNC 41e2b e 0 std::move<void (*&)(const std::_Any_data&)>
FUNC 41e39 52 0 std::swap<void (*)(const std::_Any_data&)>
FUNC 41e8c 41 0 TestException::~TestException
FUNC 41ece 26 0 TestException::~TestException
FUNC 41ef4 96 0 CrashingWidget::qt_static_metacall
FUNC 41f8a 48 0 CrashingWidget::metaObject
FUNC 41fd2 50 0 CrashingWidget::qt_metacast
FUNC 42022 84 0 CrashingWidget::qt_metacall
FUNC 420a6 11 0 QScopedPointer<QObjectData, QScopedPointerDeleter<QObjectData> >::operator->
FUNC 420b8 d9 0 WidgetTracker::WidgetTracker
FUNC 42192 546 0 WidgetTracker::printProperties
FUNC 426d8 68e 0 WidgetTracker::printGeometry
FUNC 42d66 1fb 0 WidgetTracker::printType
FUNC 42f62 4c 0 WidgetTracker::updateObject
FUNC 42fae 169 0 WidgetTracker::removeObject
FUNC 43118 113 0 WidgetTracker::updateObjectSubtree
FUNC 4322c 8c 0 WidgetTracker::updateAllWidgets
FUNC 432b8 a0 0 WidgetTracker::eventLoopStartedSlot
FUNC 43358 62 0 WidgetTracker::removeObjectFromListSlot
FUNC 433ba 2c5 0 WidgetTracker::eventFilter
FUNC 43680 52 0 QMessageLogContext::QMessageLogContext
FUNC 436d2 38 0 QMessageLogger::QMessageLogger
FUNC 4370a 17 0 QFlag::QFlag
FUNC 43722 10 0 QFlag::operator uint
FUNC 43732 26 0 QFlags<Qt::WindowType>::QFlags
FUNC 43758 35 0 QtPrivate::RefCount::isShared
FUNC 4378d d 0 QArrayData::sharedNull
FUNC 4379a 1e 0 QListData::dispose
FUNC 437b8 22 0 QListData::size
FUNC 437da 34 0 QListData::at
FUNC 4380e 28 0 QListData::begin
FUNC 43836 28 0 QListData::end
FUNC 4385e 14 0 QString::size
FUNC 43872 49 0 QString::fromUtf8
FUNC 438bc 47 0 QString::QString
FUNC 43904 14 0 QString::length
FUNC 43918 1d 0 QString::constData
FUNC 43936 1e 0 QString::QString
FUNC 43954 28 0 qMax<int>
FUNC 4397c 53 0 QString::operator==
FUNC 439d0 53 0 QString::operator!=
FUNC 43a24 19 0 QDebug::nospace
FUNC 43a3e 35 0 QDebug::maybeSpace
FUNC 43a74 34 0 QDebug::operator<<
FUNC 43aa8 7d 0 QDebug::operator<<
FUNC 43b26 53 0 QDebug::operator<<
FUNC 43b7a 15 0 QEvent::type
FUNC 43b90 12 0 QChildEvent::child
FUNC 43ba2 24 0 QPoint::QPoint
FUNC 43bc6 10 0 QPoint::x
FUNC 43bd6 11 0 QPoint::y
FUNC 43be8 10 0 QRect::left
FUNC 43bf8 11 0 QRect::top
FUNC 43c0a 11 0 QRect::right
FUNC 43c1c 11 0 QRect::bottom
FUNC 43c2e 34 0 QRect::moveLeft
FUNC 43c62 36 0 QRect::moveTop
FUNC 43c98 4b 0 QRect::moveTopLeft
FUNC 43ce4 3e 0 QFlags<Qt::WindowType>::operator&
FUNC 43d22 10 0 QFlags<Qt::WindowType>::operator QFlags<Qt::WindowType>::Int
FUNC 43d32 36 0 QWidget::windowType
FUNC 43d68 22 0 QWidget::isWindow
FUNC 43d8a 16 0 QWidget::geometry
FUNC 43da0 17 0 QFlags<Qt::FindChildOption>::QFlags
FUNC 43db7 b 0 QTypedArrayData<short unsigned int>::sharedNull
FUNC 43dc2 1a 0 QTypedArrayData<short unsigned int>::data
FUNC 43ddc b 0 QListSpecialMethods<QWidget*>::QListSpecialMethods
FUNC 43de8 29 0 QList<QWidget*>::QList
FUNC 43e11 2a 0 std::operator==<char, std::char_traits<char>, std::allocator<char> >
FUNC 43e3b 28 0 std::operator!=<char, std::char_traits<char>, std::allocator<char> >
FUNC 43e64 6f 0 QObject::findChildren<QWidget*>
FUNC 43ed4 40 0 QList<QWidget*>::begin
FUNC 43f14 40 0 QList<QWidget*>::end
FUNC 43f54 22 0 QList<QWidget*>::iterator::operator!=
FUNC 43f76 20 0 QList<QWidget*>::iterator::operator++
FUNC 43f96 1d 0 QList<QWidget*>::iterator::operator*
FUNC 43fb4 11e 0 QList<QWidget*>::removeAll
FUNC 440d2 26 0 QList<QWidget*>::push_back
FUNC 440f8 2e 0 QList<QWidget*>::detach
FUNC 44126 1a 0 QList<QWidget*>::iterator::iterator
FUNC 44140 e 0 QList<QWidget*>::Node::t
FUNC 4414e e9 0 QList<QWidget*>::indexOf
FUNC 44238 f 0 QList<QWidget*>::node_destruct
FUNC 44248 f8 0 QList<QWidget*>::append
FUNC 44340 27 0 QList<QWidget*>::detach_helper
FUNC 44368 1d5 0 QList<QWidget*>::detach_helper_grow
FUNC 4453e 21 0 QList<QWidget*>::node_construct
FUNC 44560 d0 0 QList<QWidget*>::detach_helper
FUNC 44630 6e 0 QList<QWidget*>::node_copy
FUNC 4469e ce 0 WidgetTracker::qt_static_metacall
FUNC 4476c 48 0 WidgetTracker::metaObject
FUNC 447b4 50 0 WidgetTracker::qt_metacast
FUNC 44804 84 0 WidgetTracker::qt_metacall
FUNC 44888 2c 0 WidgetTracker::eventLoopStartedSignal
FUNC 448b4 1a4 0 crashup::Crashup::Crashup
FUNC 44a58 2a 0 crashup::Crashup::setAppName
FUNC 44a82 2a 0 crashup::Crashup::setAppVersion
FUNC 44aac 2d 0 crashup::Crashup::setAppPlatform
FUNC 44ada 489 0 crashup::Crashup::makeInternalDirPath
FUNC 44f64 e6 0 crashup::Crashup::initCrashHandler
FUNC 4504a 8b 0 crashup::Crashup::writeMinidump
FUNC 450d6 263 0 crashup::Crashup::initCrashUploader
FUNC 4533a 8b 0 crashup::Crashup::uploadPendingMinidumps
FUNC 453c6 217 0 crashup::Crashup::sendUsageReport
FUNC 455dd 49 0 __static_initialization_and_destruction_0
FUNC 45626 15 0 _GLOBAL__sub_I_Crashup.cpp
FUNC 4563b 2c 0 std::char_traits<char>::length
FUNC 45667 f 0 operator delete
FUNC 45676 14 0 QByteArray::size
FUNC 4568a 4a 0 QString::fromStdString
FUNC 456d4 17 0 QFlags<QUrl::ComponentFormattingOption>::QFlags
FUNC 456ec 2f 0 QUrlQuery::toString
FUNC 4571c 513 0 Stats::send
FUNC 45c30 38 0 CrashupInitializationException::CrashupInitializationException
FUNC 45c68 e 0 std::forward<char const (&)[11]>
FUNC 45c76 a3 0 std::pair<const std::__cxx11::basic_string<char, std::char_traits<char>, std::allocator<char> >, std::__cxx11::basic_string<char, std::char_traits<char>, std::allocator<char> > >::pair<char const (&)[11], void>
FUNC 45d1a 2b 0 std::pair<const std::__cxx11::basic_string<char, std::char_traits<char>, std::allocator<char> >, std::__cxx11::basic_string<char, std::char_traits<char>, std::allocator<char> > >::~pair
FUNC 45d45 e 0 std::forward<char const (&)[9]>
FUNC 45d53 e 0 std::forward<std::__cxx11::basic_string<char>&>
FUNC 45d62 ae 0 std::pair<const std::__cxx11::basic_string<char, std::char_traits<char>, std::allocator<char> >, std::__cxx11::basic_string<char, std::char_traits<char>, std::allocator<char> > >::pair<char const (&)[9], std::__cxx11::basic_string<char>&, void>
FUNC 45e10 e 0 std::forward<char const (&)[12]>
FUNC 45e1e ae 0 std::pair<const std::__cxx11::basic_string<char, std::char_traits<char>, std::allocator<char> >, std::__cxx11::basic_string<char, std::char_traits<char>, std::allocator<char> > >::pair<char const (&)[12], std::__cxx11::basic_string<char>&, void>
FUNC 45ecc e 0 std::forward<char const (&)[13]>
FUNC 45eda ae 0 std::pair<const std::__cxx11::basic_string<char, std::char_traits<char>, std::allocator<char> >, std::__cxx11::basic_string<char, std::char_traits<char>, std::allocator<char> > >::pair<char const (&)[13], std::__cxx11::basic_string<char>&, void>
FUNC 45f88 e 0 std::forward<char const (&)[20]>
FUNC 45f96 d6 0 std::pair<const std::__cxx11::basic_string<char, std::char_traits<char>, std::allocator<char> >, std::__cxx11::basic_string<char, std::char_traits<char>, std::allocator<char> > >::pair<char const (&)[12], char const (&)[20], void>
FUNC 4606c 1b 0 std::map<std::__cxx11::basic_string<char, std::char_traits<char>, std::allocator<char> >, std::__cxx11::basic_string<char, std::char_traits<char>, std::allocator<char> >, std::less<std::__cxx11::basic_string<char, std::char_traits<char>, std::allocator<char> > >, std::allocator<std::pair<const std::__cxx11::basic_string<char, std::char_traits<char>, std::allocator<char> >, std::__cxx11::basic_string<char, std::char_traits<char>, std::allocator<char> > > > >::~map
FUNC 46087 62 0 std::operator+<char, std::char_traits<char>, std::allocator<char> >
FUNC 460e9 e 0 std::move<std::__cxx11::basic_string<char>&>
FUNC 460f8 1a 0 std::map<std::__cxx11::basic_string<char, std::char_traits<char>, std::allocator<char> >, std::__cxx11::basic_string<char, std::char_traits<char>, std::allocator<char> >, std::less<std::__cxx11::basic_string<char, std::char_traits<char>, std::allocator<char> > >, std::allocator<std::pair<const std::__cxx11::basic_string<char, std::char_traits<char>, std::allocator<char> >, std::__cxx11::basic_string<char, std::char_traits<char>, std::allocator<char> > > > >::begin
FUNC 46112 1a 0 std::map<std::__cxx11::basic_string<char, std::char_traits<char>, std::allocator<char> >, std::__cxx11::basic_string<char, std::char_traits<char>, std::allocator<char> >, std::less<std::__cxx11::basic_string<char, std::char_traits<char>, std::allocator<char> > >, std::allocator<std::pair<const std::__cxx11::basic_string<char, std::char_traits<char>, std::allocator<char> >, std::__cxx11::basic_string<char, std::char_traits<char>, std::allocator<char> > > > >::end
FUNC 4612c 22 0 std::_Rb_tree_const_iterator<std::pair<const std::__cxx11::basic_string<char, std::char_traits<char>, std::allocator<char> >, std::__cxx11::basic_string<char, std::char_traits<char>, std::allocator<char> > > >::operator!=
FUNC 4614e 2b 0 std::_Rb_tree_const_iterator<std::pair<const std::__cxx11::basic_string<char, std::char_traits<char>, std::allocator<char> >, std::__cxx11::basic_string<char, std::char_traits<char>, std::allocator<char> > > >::operator++
FUNC 4617a 1d 0 std::_Rb_tree_const_iterator<std::pair<const std::__cxx11::basic_string<char, std::char_traits<char>, std::allocator<char> >, std::__cxx11::basic_string<char, std::char_traits<char>, std::allocator<char> > > >::operator*
FUNC 46197 a7 0 std::operator+<char, std::char_traits<char>, std::allocator<char> >
FUNC 4623e 47 0 std::operator+<char, std::char_traits<char>, std::allocator<char> >
FUNC 46286 1b 0 std::allocator<std::pair<const std::__cxx11::basic_string<char, std::char_traits<char>, std::allocator<char> >, std::__cxx11::basic_string<char, std::char_traits<char>, std::allocator<char> > > >::allocator
FUNC 462a2 1b 0 std::allocator<std::pair<const std::__cxx11::basic_string<char, std::char_traits<char>, std::allocator<char> >, std::__cxx11::basic_string<char, std::char_traits<char>, std::allocator<char> > > >::~allocator
FUNC 462be 11 0 std::initializer_list<std::pair<const std::__cxx11::basic_string<char, std::char_traits<char>, std::allocator<char> >, std::__cxx11::basic_string<char, std::char_traits<char>, std::allocator<char> > > >::begin
FUNC 462d0 12 0 std::initializer_list<std::pair<const std::__cxx11::basic_string<char, std::char_traits<char>, std::allocator<char> >, std::__cxx11::basic_string<char, std::char_traits<char>, std::allocator<char> > > >::size
FUNC 462e2 36 0 std::initializer_list<std::pair<const std::__cxx11::basic_string<char, std::char_traits<char>, std::allocator<char> >, std::__cxx11::basic_string<char, std::char_traits<char>, std::allocator<char> > > >::end
FUNC 46318 c9 0 std::map<std::__cxx11::basic_string<char, std::char_traits<char>, std::allocator<char> >, std::__cxx11::basic_string<char, std::char_traits<char>, std::allocator<char> >, std::less<std::__cxx11::basic_string<char, std::char_traits<char>, std::allocator<char> > >, std::allocator<std::pair<const std::__cxx11::basic_string<char, std::char_traits<char>, std::allocator<char> >, std::__cxx11::basic_string<char, std::char_traits<char>, std::allocator<char> > > > >::map
FUNC 463e2 1b 0 std::_Rb_tree<std::__cxx11::basic_string<char, std::char_traits<char>, std::allocator<char> >, std::pair<const std::__cxx11::basic_string<char, std::char_traits<char>, std::allocator<char> >, std::__cxx11::basic_string<char, std::char_traits<char>, std::allocator<char> > >, std::_Select1st<std::pair<const std::__cxx11::basic_string<char, std::char_traits<char>, std::allocator<char> >, std::__cxx11::basic_string<char, std::char_traits<char>, std::allocator<char> > > >, std::less<std::__cxx11::basic_string<char, std::char_traits<char>, std::allocator<char> > >, std::allocator<std::pair<const std::__cxx11::basic_string<char, std::char_traits<char>, std::allocator<char> >, std::__cxx11::basic_string<char, std::char_traits<char>, std::allocator<char> > > > >::_Rb_tree_impl<std::less<std::__cxx11::basic_string<char, std::char_traits<char>, std::allocator<char> > >, true>::~_Rb_tree_impl
FUNC 463fe 39 0 std::_Rb_tree<std::__cxx11::basic_string<char, std::char_traits<char>, std::allocator<char> >, std::pair<const std::__cxx11::basic_string<char, std::char_traits<char>, std::allocator<char> >, std::__cxx11::basic_string<char, std::char_traits<char>, std::allocator<char> > >, std::_Select1st<std::pair<const std::__cxx11::basic_string<char, std::char_traits<char>, std::allocator<char> >, std::__cxx11::basic_string<char, std::char_traits<char>, std::allocator<char> > > >, std::less<std::__cxx11::basic_string<char, std::char_traits<char>, std::allocator<char> > >, std::allocator<std::pair<const std::__cxx11::basic_string<char, std::char_traits<char>, std::allocator<char> >, std::__cxx11::basic_string<char, std::char_traits<char>, std::allocator<char> > > > >::~_Rb_tree
FUNC 46438 29 0 std::_Rb_tree<std::__cxx11::basic_string<char, std::char_traits<char>, std::allocator<char> >, std::pair<const std::__cxx11::basic_string<char, std::char_traits<char>, std::allocator<char> >, std::__cxx11::basic_string<char, std::char_traits<char>, std::allocator<char> > >, std::_Select1st<std::pair<const std::__cxx11::basic_string<char, std::char_traits<char>, std::allocator<char> >, std::__cxx11::basic_string<char, std::char_traits<char>, std::allocator<char> > > >, std::less<std::__cxx11::basic_string<char, std::char_traits<char>, std::allocator<char> > >, std::allocator<std::pair<const std::__cxx11::basic_string<char, std::char_traits<char>, std::allocator<char> >, std::__cxx11::basic_string<char, std::char_traits<char>, std::allocator<char> > > > >::begin
FUNC 46462 29 0 std::_Rb_tree<std::__cxx11::basic_string<char, std::char_traits<char>, std::allocator<char> >, std::pair<const std::__cxx11::basic_string<char, std::char_traits<char>, std::allocator<char> >, std::__cxx11::basic_string<char, std::char_traits<char>, std::allocator<char> > >, std::_Select1st<std::pair<const std::__cxx11::basic_string<char, std::char_traits<char>, std::allocator<char> >, std::__cxx11::basic_string<char, std::char_traits<char>, std::allocator<char> > > >, std::less<std::__cxx11::basic_string<char, std::char_traits<char>, std::allocator<char> > >, std::allocator<std::pair<const std::__cxx11::basic_string<char, std::char_traits<char>, std::allocator<char> >, std::__cxx11::basic_string<char, std::char_traits<char>, std::allocator<char> > > > >::end
FUNC 4648c 1e 0 std::_Rb_tree_node<std::pair<const std::__cxx11::basic_string<char, std::char_traits<char>, std::allocator<char> >, std::__cxx11::basic_string<char, std::char_traits<char>, std::allocator<char> > > >::_M_valptr
FUNC 464aa b 0 __gnu_cxx::new_allocator<std::pair<const std::__cxx11::basic_string<char, std::char_traits<char>, std::allocator<char> >, std::__cxx11::basic_string<char, std::char_traits<char>, std::allocator<char> > > >::new_allocator
FUNC 464b6 b 0 __gnu_cxx::new_allocator<std::pair<const std::__cxx11::basic_string<char, std::char_traits<char>, std::allocator<char> >, std::__cxx11::basic_string<char, std::char_traits<char>, std::allocator<char> > > >::~new_allocator
FUNC 464c2 26 0 std::allocator<std::pair<const std::__cxx11::basic_string<char, std::char_traits<char>, std::allocator<char> >, std::__cxx11::basic_string<char, std::char_traits<char>, std::allocator<char> > > >::allocator
FUNC 464e8 6e 0 std::_Rb_tree<std::__cxx11::basic_string<char, std::char_traits<char>, std::allocator<char> >, std::pair<const std::__cxx11::basic_string<char, std::char_traits<char>, std::allocator<char> >, std::__cxx11::basic_string<char, std::char_traits<char>, std::allocator<char> > >, std::_Select1st<std::pair<const std::__cxx11::basic_string<char, std::char_traits<char>, std::allocator<char> >, std::__cxx11::basic_string<char, std::char_traits<char>, std::allocator<char> > > >, std::less<std::__cxx11::basic_string<char, std::char_traits<char>, std::allocator<char> > >, std::allocator<std::pair<const std::__cxx11::basic_string<char, std::char_traits<char>, std::allocator<char> >, std::__cxx11::basic_string<char, std::char_traits<char>, std::allocator<char> > > > >::_Rb_tree
FUNC 46556 76 0 std::_Rb_tree<std::__cxx11::basic_string<char, std::char_traits<char>, std::allocator<char> >, std::pair<const std::__cxx11::basic_string<char, std::char_traits<char>, std::allocator<char> >, std::__cxx11::basic_string<char, std::char_traits<char>, std::allocator<char> > >, std::_Select1st<std::pair<const std::__cxx11::basic_string<char, std::char_traits<char>, std::allocator<char> >, std::__cxx11::basic_string<char, std::char_traits<char>, std::allocator<char> > > >, std::less<std::__cxx11::basic_string<char, std::char_traits<char>, std::allocator<char> > >, std::allocator<std::pair<const std::__cxx11::basic_string<char, std::char_traits<char>, std::allocator<char> >, std::__cxx11::basic_string<char, std::char_traits<char>, std::allocator<char> > > > >::_M_insert_unique<const std::pair<const std::__cxx11::basic_string<char>, std::__cxx11::basic_string<char> >*>
FUNC 465cc 1b 0 std::allocator<std::_Rb_tree_node<std::pair<const std::__cxx11::basic_string<char, std::char_traits<char>, std::allocator<char> >, std::__cxx11::basic_string<char, std::char_traits<char>, std::allocator<char> > > > >::~allocator
FUNC 465e8 65 0 std::_Rb_tree<std::__cxx11::basic_string<char, std::char_traits<char>, std::allocator<char> >, std::pair<const std::__cxx11::basic_string<char, std::char_traits<char>, std::allocator<char> >, std::__cxx11::basic_string<char, std::char_traits<char>, std::allocator<char> > >, std::_Select1st<std::pair<const std::__cxx11::basic_string<char, std::char_traits<char>, std::allocator<char> >, std::__cxx11::basic_string<char, std::char_traits<char>, std::allocator<char> > > >, std::less<std::__cxx11::basic_string<char, std::char_traits<char>, std::allocator<char> > >, std::allocator<std::pair<const std::__cxx11::basic_string<char, std::char_traits<char>, std::allocator<char> >, std::__cxx11::basic_string<char, std::char_traits<char>, std::allocator<char> > > > >::_M_erase
FUNC 4664e 12 0 std::_Rb_tree<std::__cxx11::basic_string<char, std::char_traits<char>, std::allocator<char> >, std::pair<const std::__cxx11::basic_string<char, std::char_traits<char>, std::allocator<char> >, std::__cxx11::basic_string<char, std::char_traits<char>, std::allocator<char> > >, std::_Select1st<std::pair<const std::__cxx11::basic_string<char, std::char_traits<char>, std::allocator<char> >, std::__cxx11::basic_string<char, std::char_traits<char>, std::allocator<char> > > >, std::less<std::__cxx11::basic_string<char, std::char_traits<char>, std::allocator<char> > >, std::allocator<std::pair<const std::__cxx11::basic_string<char, std::char_traits<char>, std::allocator<char> >, std::__cxx11::basic_string<char, std::char_traits<char>, std::allocator<char> > > > >::_M_begin
FUNC 46660 1a 0 std::_Rb_tree_const_iterator<std::pair<const std::__cxx11::basic_string<char, std::char_traits<char>, std::allocator<char> >, std::__cxx11::basic_string<char, std::char_traits<char>, std::allocator<char> > > >::_Rb_tree_const_iterator
FUNC 4667a 1a 0 __gnu_cxx::__aligned_membuf<std::pair<const std::__cxx11::basic_string<char, std::char_traits<char>, std::allocator<char> >, std::__cxx11::basic_string<char, std::char_traits<char>, std::allocator<char> > > >::_M_ptr
FUNC 46694 f 0 __gnu_cxx::new_allocator<std::pair<const std::__cxx11::basic_string<char, std::char_traits<char>, std::allocator<char> >, std::__cxx11::basic_string<char, std::char_traits<char>, std::allocator<char> > > >::new_allocator
FUNC 466a4 1f 0 std::allocator<std::_Rb_tree_node<std::pair<const std::__cxx11::basic_string<char, std::char_traits<char>, std::allocator<char> >, std::__cxx11::basic_string<char, std::char_traits<char>, std::allocator<char> > > > >::allocator<std::pair<const std::__cxx11::basic_string<char>, std::__cxx11::basic_string<char> > >
FUNC 466c3 e 0 std::move<std::allocator<std::_Rb_tree_node<std::pair<const std::__cxx11::basic_string<char>, std::__cxx11::basic_string<char> > > >&>
FUNC 466d2 7c 0 std::_Rb_tree<std::__cxx11::basic_string<char, std::char_traits<char>, std::allocator<char> >, std::pair<const std::__cxx11::basic_string<char, std::char_traits<char>, std::allocator<char> >, std::__cxx11::basic_string<char, std::char_traits<char>, std::allocator<char> > >, std::_Select1st<std::pair<const std::__cxx11::basic_string<char, std::char_traits<char>, std::allocator<char> >, std::__cxx11::basic_string<char, std::char_traits<char>, std::allocator<char> > > >, std::less<std::__cxx11::basic_string<char, std::char_traits<char>, std::allocator<char> > >, std::allocator<std::pair<const std::__cxx11::basic_string<char, std::char_traits<char>, std::allocator<char> >, std::__cxx11::basic_string<char, std::char_traits<char>, std::allocator<char> > > > >::_Rb_tree_impl<std::less<std::__cxx11::basic_string<char, std::char_traits<char>, std::allocator<char> > >, true>::_Rb_tree_impl
FUNC 4674e 1a 0 std::_Rb_tree<std::__cxx11::basic_string<char, std::char_traits<char>, std::allocator<char> >, std::pair<const std::__cxx11::basic_string<char, std::char_traits<char>, std::allocator<char> >, std::__cxx11::basic_string<char, std::char_traits<char>, std::allocator<char> > >, std::_Select1st<std::pair<const std::__cxx11::basic_string<char, std::char_traits<char>, std::allocator<char> >, std::__cxx11::basic_string<char, std::char_traits<char>, std::allocator<char> > > >, std::less<std::__cxx11::basic_string<char, std::char_traits<char>, std::allocator<char> > >, std::allocator<std::pair<const std::__cxx11::basic_string<char, std::char_traits<char>, std::allocator<char> >, std::__cxx11::basic_string<char, std::char_traits<char>, std::allocator<char> > > > >::_Alloc_node::_Alloc_node
FUNC 46768 29 0 std::_Rb_tree<std::__cxx11::basic_string<char, std::char_traits<char>, std::allocator<char> >, std::pair<const std::__cxx11::basic_string<char, std::char_traits<char>, std::allocator<char> >, std::__cxx11::basic_string<char, std::char_traits<char>, std::allocator<char> > >, std::_Select1st<std::pair<const std::__cxx11::basic_string<char, std::char_traits<char>, std::allocator<char> >, std::__cxx11::basic_string<char, std::char_traits<char>, std::allocator<char> > > >, std::less<std::__cxx11::basic_string<char, std::char_traits<char>, std::allocator<char> > >, std::allocator<std::pair<const std::__cxx11::basic_string<char, std::char_traits<char>, std::allocator<char> >, std::__cxx11::basic_string<char, std::char_traits<char>, std::allocator<char> > > > >::end
FUNC 46792 1d 0 std::_Rb_tree_const_iterator<std::pair<const std::__cxx11::basic_string<char, std::char_traits<char>, std::allocator<char> >, std::__cxx11::basic_string<char, std::char_traits<char>, std::allocator<char> > > >::_Rb_tree_const_iterator
FUNC 467af e 0 std::forward<const std::pair<const std::__cxx11::basic_string<char>, std::__cxx11::basic_string<char> >&>
FUNC 467be 9a 0 std::_Rb_tree<std::__cxx11::basic_string<char, std::char_traits<char>, std::allocator<char> >, std::pair<const std::__cxx11::basic_string<char, std::char_traits<char>, std::allocator<char> >, std::__cxx11::basic_string<char, std::char_traits<char>, std::allocator<char> > >, std::_Select1st<std::pair<const std::__cxx11::basic_string<char, std::char_traits<char>, std::allocator<char> >, std::__cxx11::basic_string<char, std::char_traits<char>, std::allocator<char> > > >, std::less<std::__cxx11::basic_string<char, std::char_traits<char>, std::allocator<char> > >, std::allocator<std::pair<const std::__cxx11::basic_string<char, std::char_traits<char>, std::allocator<char> >, std::__cxx11::basic_string<char, std::char_traits<char>, std::allocator<char> > > > >::_M_insert_unique_<const std::pair<const std::__cxx11::basic_string<char>, std::__cxx11::basic_string<char> >&, std::_Rb_tree<std::__cxx11::basic_string<char>, std::pair<const std::__cxx11::basic_string<char>, std::__cxx11::basic_string<char> >, std::_Select1st<std::pair<const std::__cxx11::basic_string<char>, std::__cxx11::basic_string<char> > >, std::less<std::__cxx11::basic_string<char> >, std::allocator<std::pair<const std::__cxx11::basic_string<char>, std::__cxx11::basic_string<char> > > >::_Alloc_node>
FUNC 46858 b 0 __gnu_cxx::new_allocator<std::_Rb_tree_node<std::pair<const std::__cxx11::basic_string<char, std::char_traits<char>, std::allocator<char> >, std::__cxx11::basic_string<char, std::char_traits<char>, std::allocator<char> > > > >::~new_allocator
FUNC 46863 12 0 std::_Rb_tree<std::__cxx11::basic_string<char, std::char_traits<char>, std::allocator<char> >, std::pair<const std::__cxx11::basic_string<char, std::char_traits<char>, std::allocator<char> >, std::__cxx11::basic_string<char, std::char_traits<char>, std::allocator<char> > >, std::_Select1st<std::pair<const std::__cxx11::basic_string<char, std::char_traits<char>, std::allocator<char> >, std::__cxx11::basic_string<char, std::char_traits<char>, std::allocator<char> > > >, std::less<std::__cxx11::basic_string<char, std::char_traits<char>, std::allocator<char> > >, std::allocator<std::pair<const std::__cxx11::basic_string<char, std::char_traits<char>, std::allocator<char> >, std::__cxx11::basic_string<char, std::char_traits<char>, std::allocator<char> > > > >::_S_right
FUNC 46875 12 0 std::_Rb_tree<std::__cxx11::basic_string<char, std::char_traits<char>, std::allocator<char> >, std::pair<const std::__cxx11::basic_string<char, std::char_traits<char>, std::allocator<char> >, std::__cxx11::basic_string<char, std::char_traits<char>, std::allocator<char> > >, std::_Select1st<std::pair<const std::__cxx11::basic_string<char, std::char_traits<char>, std::allocator<char> >, std::__cxx11::basic_string<char, std::char_traits<char>, std::allocator<char> > > >, std::less<std::__cxx11::basic_string<char, std::char_traits<char>, std::allocator<char> > >, std::allocator<std::pair<const std::__cxx11::basic_string<char, std::char_traits<char>, std::allocator<char> >, std::__cxx11::basic_string<char, std::char_traits<char>, std::allocator<char> > > > >::_S_left
FUNC 46888 39 0 std::_Rb_tree<std::__cxx11::basic_string<char, std::char_traits<char>, std::allocator<char> >, std::pair<const std::__cxx11::basic_string<char, std::char_traits<char>, std::allocator<char> >, std::__cxx11::basic_string<char, std::char_traits<char>, std::allocator<char> > >, std::_Select1st<std::pair<const std::__cxx11::basic_string<char, std::char_traits<char>, std::allocator<char> >, std::__cxx11::basic_string<char, std::char_traits<char>, std::allocator<char> > > >, std::less<std::__cxx11::basic_string<char, std::char_traits<char>, std::allocator<char> > >, std::allocator<std::pair<const std::__cxx11::basic_string<char, std::char_traits<char>, std::allocator<char> >, std::__cxx11::basic_string<char, std::char_traits<char>, std::allocator<char> > > > >::_M_drop_node
FUNC 468c2 e 0 __gnu_cxx::__aligned_membuf<std::pair<const std::__cxx11::basic_string<char, std::char_traits<char>, std::allocator<char> >, std::__cxx11::basic_string<char, std::char_traits<char>, std::allocator<char> > > >::_M_addr
FUNC 468d0 b 0 __gnu_cxx::new_allocator<std::_Rb_tree_node<std::pair<const std::__cxx11::basic_string<char, std::char_traits<char>, std::allocator<char> >, std::__cxx11::basic_string<char, std::char_traits<char>, std::allocator<char> > > > >::new_allocator
FUNC 468dc 26 0 std::allocator<std::_Rb_tree_node<std::pair<const std::__cxx11::basic_string<char, std::char_traits<char>, std::allocator<char> >, std::__cxx11::basic_string<char, std::char_traits<char>, std::allocator<char> > > > >::allocator
FUNC 46902 42 0 std::_Rb_tree<std::__cxx11::basic_string<char, std::char_traits<char>, std::allocator<char> >, std::pair<const std::__cxx11::basic_string<char, std::char_traits<char>, std::allocator<char> >, std::__cxx11::basic_string<char, std::char_traits<char>, std::allocator<char> > >, std::_Select1st<std::pair<const std::__cxx11::basic_string<char, std::char_traits<char>, std::allocator<char> >, std::__cxx11::basic_string<char, std::char_traits<char>, std::allocator<char> > > >, std::less<std::__cxx11::basic_string<char, std::char_traits<char>, std::allocator<char> > >, std::allocator<std::pair<const std::__cxx11::basic_string<char, std::char_traits<char>, std::allocator<char> >, std::__cxx11::basic_string<char, std::char_traits<char>, std::allocator<char> > > > >::_Rb_tree_impl<std::less<std::__cxx11::basic_string<char, std::char_traits<char>, std::allocator<char> > >, true>::_M_initialize
FUNC 46944 1a 0 std::_Rb_tree_iterator<std::pair<const std::__cxx11::basic_string<char, std::char_traits<char>, std::allocator<char> >, std::__cxx11::basic_string<char, std::char_traits<char>, std::allocator<char> > > >::_Rb_tree_iterator
FUNC 4695e e 0 std::forward<std::_Rb_tree_node_base*&>
FUNC 4696c 3c 0 std::pair<std::_Rb_tree_node_base*, std::_Rb_tree_node_base*>::pair<std::_Rb_tree_node_base*&, void>
FUNC 469a8 44 0 std::pair<std::_Rb_tree_node_base*, std::_Rb_tree_node_base*>::pair<std::_Rb_tree_node_base*&, std::_Rb_tree_node_base*&, void>
FUNC 469ec 3c 0 std::pair<std::_Rb_tree_node_base*, std::_Rb_tree_node_base*>::pair<std::_Rb_tree_node_base*&, void>
FUNC 46a28 449 0 std::_Rb_tree<std::__cxx11::basic_string<char, std::char_traits<char>, std::allocator<char> >, std::pair<const std::__cxx11::basic_string<char, std::char_traits<char>, std::allocator<char> >, std::__cxx11::basic_string<char, std::char_traits<char>, std::allocator<char> > >, std::_Select1st<std::pair<const std::__cxx11::basic_string<char, std::char_traits<char>, std::allocator<char> >, std::__cxx11::basic_string<char, std::char_traits<char>, std::allocator<char> > > >, std::less<std::__cxx11::basic_string<char, std::char_traits<char>, std::allocator<char> > >, std::allocator<std::pair<const std::__cxx11::basic_string<char, std::char_traits<char>, std::allocator<char> >, std::__cxx11::basic_string<char, std::char_traits<char>, std::allocator<char> > > > >::_M_get_insert_hint_unique_pos
FUNC 46e72 12 0 std::_Select1st<std::pair<const std::__cxx11::basic_string<char, std::char_traits<char>, std::allocator<char> >, std::__cxx11::basic_string<char, std::char_traits<char>, std::allocator<char> > > >::operator()
FUNC 46e84 10d 0 std::_Rb_tree<std::__cxx11::basic_string<char, std::char_traits<char>, std::allocator<char> >, std::pair<const std::__cxx11::basic_string<char, std::char_traits<char>, std::allocator<char> >, std::__cxx11::basic_string<char, std::char_traits<char>, std::allocator<char> > >, std::_Select1st<std::pair<const std::__cxx11::basic_string<char, std::char_traits<char>, std::allocator<char> >, std::__cxx11::basic_string<char, std::char_traits<char>, std::allocator<char> > > >, std::less<std::__cxx11::basic_string<char, std::char_traits<char>, std::allocator<char> > >, std::allocator<std::pair<const std::__cxx11::basic_string<char, std::char_traits<char>, std::allocator<char> >, std::__cxx11::basic_string<char, std::char_traits<char>, std::allocator<char> > > > >::_M_insert_<const std::pair<const std::__cxx11::basic_string<char>, std::__cxx11::basic_string<char> >&, std::_Rb_tree<std::__cxx11::basic_string<char>, std::pair<const std::__cxx11::basic_string<char>, std::__cxx11::basic_string<char> >, std::_Select1st<std::pair<const std::__cxx11::basic_string<char>, std::__cxx11::basic_string<char> > >, std::less<std::__cxx11::basic_string<char> >, std::allocator<std::pair<const std::__cxx11::basic_string<char>, std::__cxx11::basic_string<char> > > >::_Alloc_node>
FUNC 46f92 3f 0 std::_Rb_tree<std::__cxx11::basic_string<char, std::char_traits<char>, std::allocator<char> >, std::pair<const std::__cxx11::basic_string<char, std::char_traits<char>, std::allocator<char> >, std::__cxx11::basic_string<char, std::char_traits<char>, std::allocator<char> > >, std::_Select1st<std::pair<const std::__cxx11::basic_string<char, std::char_traits<char>, std::allocator<char> >, std::__cxx11::basic_string<char, std::char_traits<char>, std::allocator<char> > > >, std::less<std::__cxx11::basic_string<char, std::char_traits<char>, std::allocator<char> > >, std::allocator<std::pair<const std::__cxx11::basic_string<char, std::char_traits<char>, std::allocator<char> >, std::__cxx11::basic_string<char, std::char_traits<char>, std::allocator<char> > > > >::_M_destroy_node
FUNC 46fd2 36 0 std::_Rb_tree<std::__cxx11::basic_string<char, std::char_traits<char>, std::allocator<char> >, std::pair<const std::__cxx11::basic_string<char, std::char_traits<char>, std::allocator<char> >, std::__cxx11::basic_string<char, std::char_traits<char>, std::allocator<char> > >, std::_Select1st<std::pair<const std::__cxx11::basic_string<char, std::char_traits<char>, std::allocator<char> >, std::__cxx11::basic_string<char, std::char_traits<char>, std::allocator<char> > > >, std::less<std::__cxx11::basic_string<char, std::char_traits<char>, std::allocator<char> > >, std::allocator<std::pair<const std::__cxx11::basic_string<char, std::char_traits<char>, std::allocator<char> >, std::__cxx11::basic_string<char, std::char_traits<char>, std::allocator<char> > > > >::_M_put_node
FUNC 47008 f 0 __gnu_cxx::new_allocator<std::_Rb_tree_node<std::pair<const std::__cxx11::basic_string<char, std::char_traits<char>, std::allocator<char> >, std::__cxx11::basic_string<char, std::char_traits<char>, std::allocator<char> > > > >::new_allocator
FUNC 47018 28 0 std::_Rb_tree_const_iterator<std::pair<const std::__cxx11::basic_string<char, std::char_traits<char>, std::allocator<char> >, std::__cxx11::basic_string<char, std::char_traits<char>, std::allocator<char> > > >::_M_const_cast
FUNC 47040 12 0 std::_Rb_tree<std::__cxx11::basic_string<char, std::char_traits<char>, std::allocator<char> >, std::pair<const std::__cxx11::basic_string<char, std::char_traits<char>, std::allocator<char> >, std::__cxx11::basic_string<char, std::char_traits<char>, std::allocator<char> > >, std::_Select1st<std::pair<const std::__cxx11::basic_string<char, std::char_traits<char>, std::allocator<char> >, std::__cxx11::basic_string<char, std::char_traits<char>, std::allocator<char> > > >, std::less<std::__cxx11::basic_string<char, std::char_traits<char>, std::allocator<char> > >, std::allocator<std::pair<const std::__cxx11::basic_string<char, std::char_traits<char>, std::allocator<char> >, std::__cxx11::basic_string<char, std::char_traits<char>, std::allocator<char> > > > >::_M_end
FUNC 47052 12 0 std::_Rb_tree<std::__cxx11::basic_string<char, std::char_traits<char>, std::allocator<char> >, std::pair<const std::__cxx11::basic_string<char, std::char_traits<char>, std::allocator<char> >, std::__cxx11::basic_string<char, std::char_traits<char>, std::allocator<char> > >, std::_Select1st<std::pair<const std::__cxx11::basic_string<char, std::char_traits<char>, std::allocator<char> >, std::__cxx11::basic_string<char, std::char_traits<char>, std::allocator<char> > > >, std::less<std::__cxx11::basic_string<char, std::char_traits<char>, std::allocator<char> > >, std::allocator<std::pair<const std::__cxx11::basic_string<char, std::char_traits<char>, std::allocator<char> >, std::__cxx11::basic_string<char, std::char_traits<char>, std::allocator<char> > > > >::size
FUNC 47064 12 0 std::_Rb_tree<std::__cxx11::basic_string<char, std::char_traits<char>, std::allocator<char> >, std::pair<const std::__cxx11::basic_string<char, std::char_traits<char>, std::allocator<char> >, std::__cxx11::basic_string<char, std::char_traits<char>, std::allocator<char> > >, std::_Select1st<std::pair<const std::__cxx11::basic_string<char, std::char_traits<char>, std::allocator<char> >, std::__cxx11::basic_string<char, std::char_traits<char>, std::allocator<char> > > >, std::less<std::__cxx11::basic_string<char, std::char_traits<char>, std::allocator<char> > >, std::allocator<std::pair<const std::__cxx11::basic_string<char, std::char_traits<char>, std::allocator<char> >, std::__cxx11::basic_string<char, std::char_traits<char>, std::allocator<char> > > > >::_M_rightmost
FUNC 47076 2c 0 std::_Rb_tree<std::__cxx11::basic_string<char, std::char_traits<char>, std::allocator<char> >, std::pair<const std::__cxx11::basic_string<char, std::char_traits<char>, std::allocator<char> >, std::__cxx11::basic_string<char, std::char_traits<char>, std::allocator<char> > >, std::_Select1st<std::pair<const std::__cxx11::basic_string<char, std::char_traits<char>, std::allocator<char> >, std::__cxx11::basic_string<char, std::char_traits<char>, std::allocator<char> > > >, std::less<std::__cxx11::basic_string<char, std::char_traits<char>, std::allocator<char> > >, std::allocator<std::pair<const std::__cxx11::basic_string<char, std::char_traits<char>, std::allocator<char> >, std::__cxx11::basic_string<char, std::char_traits<char>, std::allocator<char> > > > >::_S_key
FUNC 470a2 29 0 std::less<std::__cxx11::basic_string<char, std::char_traits<char>, std::allocator<char> > >::operator()
FUNC 470cb e 0 std::forward<std::_Rb_tree_node<std::pair<const std::__cxx11::basic_string<char>, std::__cxx11::basic_string<char> > >*&>
FUNC 470da 44 0 std::pair<std::_Rb_tree_node_base*, std::_Rb_tree_node_base*>::pair<std::_Rb_tree_node<std::pair<const std::__cxx11::basic_string<char>, std::__cxx11::basic_string<char> > >*&, std::_Rb_tree_node<std::pair<const std::__cxx11::basic_string<char>, std::__cxx11::basic_string<char> > >*&, void>
FUNC 4711e 16d 0 std::_Rb_tree<std::__cxx11::basic_string<char, std::char_traits<char>, std::allocator<char> >, std::pair<const std::__cxx11::basic_string<char, std::char_traits<char>, std::allocator<char> >, std::__cxx11::basic_string<char, std::char_traits<char>, std::allocator<char> > >, std::_Select1st<std::pair<const std::__cxx11::basic_string<char, std::char_traits<char>, std::allocator<char> >, std::__cxx11::basic_string<char, std::char_traits<char>, std::allocator<char> > > >, std::less<std::__cxx11::basic_string<char, std::char_traits<char>, std::allocator<char> > >, std::allocator<std::pair<const std::__cxx11::basic_string<char, std::char_traits<char>, std::allocator<char> >, std::__cxx11::basic_string<char, std::char_traits<char>, std::allocator<char> > > > >::_M_get_insert_unique_pos
FUNC 4728c 12 0 std::_Rb_tree<std::__cxx11::basic_string<char, std::char_traits<char>, std::allocator<char> >, std::pair<const std::__cxx11::basic_string<char, std::char_traits<char>, std::allocator<char> >, std::__cxx11::basic_string<char, std::char_traits<char>, std::allocator<char> > >, std::_Select1st<std::pair<const std::__cxx11::basic_string<char, std::char_traits<char>, std::allocator<char> >, std::__cxx11::basic_string<char, std::char_traits<char>, std::allocator<char> > > >, std::less<std::__cxx11::basic_string<char, std::char_traits<char>, std::allocator<char> > >, std::allocator<std::pair<const std::__cxx11::basic_string<char, std::char_traits<char>, std::allocator<char> >, std::__cxx11::basic_string<char, std::char_traits<char>, std::allocator<char> > > > >::_M_leftmost
FUNC 4729e 2b 0 std::_Rb_tree_iterator<std::pair<const std::__cxx11::basic_string<char, std::char_traits<char>, std::allocator<char> >, std::__cxx11::basic_string<char, std::char_traits<char>, std::allocator<char> > > >::operator--
FUNC 472ca 2b 0 std::_Rb_tree_iterator<std::pair<const std::__cxx11::basic_string<char, std::char_traits<char>, std::allocator<char> >, std::__cxx11::basic_string<char, std::char_traits<char>, std::allocator<char> > > >::operator++
FUNC 472f6 33 0 std::_Rb_tree<std::__cxx11::basic_string<char, std::char_traits<char>, std::allocator<char> >, std::pair<const std::__cxx11::basic_string<char, std::char_traits<char>, std::allocator<char> >, std::__cxx11::basic_string<char, std::char_traits<char>, std::allocator<char> > >, std::_Select1st<std::pair<const std::__cxx11::basic_string<char, std::char_traits<char>, std::allocator<char> >, std::__cxx11::basic_string<char, std::char_traits<char>, std::allocator<char> > > >, std::less<std::__cxx11::basic_string<char, std::char_traits<char>, std::allocator<char> > >, std::allocator<std::pair<const std::__cxx11::basic_string<char, std::char_traits<char>, std::allocator<char> >, std::__cxx11::basic_string<char, std::char_traits<char>, std::allocator<char> > > > >::_Alloc_node::operator()<const std::pair<const std::__cxx11::basic_string<char>, std::__cxx11::basic_string<char> >&>
FUNC 4732a e 0 std::_Rb_tree<std::__cxx11::basic_string<char, std::char_traits<char>, std::allocator<char> >, std::pair<const std::__cxx11::basic_string<char, std::char_traits<char>, std::allocator<char> >, std::__cxx11::basic_string<char, std::char_traits<char>, std::allocator<char> > >, std::_Select1st<std::pair<const std::__cxx11::basic_string<char, std::char_traits<char>, std::allocator<char> >, std::__cxx11::basic_string<char, std::char_traits<char>, std::allocator<char> > > >, std::less<std::__cxx11::basic_string<char, std::char_traits<char>, std::allocator<char> > >, std::allocator<std::pair<const std::__cxx11::basic_string<char, std::char_traits<char>, std::allocator<char> >, std::__cxx11::basic_string<char, std::char_traits<char>, std::allocator<char> > > > >::_M_get_Node_allocator
FUNC 47338 1e 0 std::_Rb_tree_node<std::pair<const std::__cxx11::basic_string<char, std::char_traits<char>, std::allocator<char> >, std::__cxx11::basic_string<char, std::char_traits<char>, std::allocator<char> > > >::_M_valptr
FUNC 47356 26 0 std::allocator_traits<std::allocator<std::_Rb_tree_node<std::pair<const std::__cxx11::basic_string<char, std::char_traits<char>, std::allocator<char> >, std::__cxx11::basic_string<char, std::char_traits<char>, std::allocator<char> > > > > >::destroy<std::pair<const std::__cxx11::basic_string<char>, std::__cxx11::basic_string<char> > >
FUNC 4737c 2e 0 std::allocator_traits<std::allocator<std::_Rb_tree_node<std::pair<const std::__cxx11::basic_string<char, std::char_traits<char>, std::allocator<char> >, std::__cxx11::basic_string<char, std::char_traits<char>, std::allocator<char> > > > > >::deallocate
FUNC 473aa 1a 0 std::_Rb_tree<std::__cxx11::basic_string<char, std::char_traits<char>, std::allocator<char> >, std::pair<const std::__cxx11::basic_string<char, std::char_traits<char>, std::allocator<char> >, std::__cxx11::basic_string<char, std::char_traits<char>, std::allocator<char> > >, std::_Select1st<std::pair<const std::__cxx11::basic_string<char, std::char_traits<char>, std::allocator<char> >, std::__cxx11::basic_string<char, std::char_traits<char>, std::allocator<char> > > >, std::less<std::__cxx11::basic_string<char, std::char_traits<char>, std::allocator<char> > >, std::allocator<std::pair<const std::__cxx11::basic_string<char, std::char_traits<char>, std::allocator<char> >, std::__cxx11::basic_string<char, std::char_traits<char>, std::allocator<char> > > > >::_S_value
FUNC 473c4 28 0 std::operator< <char, std::char_traits<char>, std::allocator<char> >
FUNC 473ec 2c 0 std::_Rb_tree<std::__cxx11::basic_string<char, std::char_traits<char>, std::allocator<char> >, std::pair<const std::__cxx11::basic_string<char, std::char_traits<char>, std::allocator<char> >, std::__cxx11::basic_string<char, std::char_traits<char>, std::allocator<char> > >, std::_Select1st<std::pair<const std::__cxx11::basic_string<char, std::char_traits<char>, std::allocator<char> >, std::__cxx11::basic_string<char, std::char_traits<char>, std::allocator<char> > > >, std::less<std::__cxx11::basic_string<char, std::char_traits<char>, std::allocator<char> > >, std::allocator<std::pair<const std::__cxx11::basic_string<char, std::char_traits<char>, std::allocator<char> >, std::__cxx11::basic_string<char, std::char_traits<char>, std::allocator<char> > > > >::_S_key
FUNC 47418 29 0 std::_Rb_tree<std::__cxx11::basic_string<char, std::char_traits<char>, std::allocator<char> >, std::pair<const std::__cxx11::basic_string<char, std::char_traits<char>, std::allocator<char> >, std::__cxx11::basic_string<char, std::char_traits<char>, std::allocator<char> > >, std::_Select1st<std::pair<const std::__cxx11::basic_string<char, std::char_traits<char>, std::allocator<char> >, std::__cxx11::basic_string<char, std::char_traits<char>, std::allocator<char> > > >, std::less<std::__cxx11::basic_string<char, std::char_traits<char>, std::allocator<char> > >, std::allocator<std::pair<const std::__cxx11::basic_string<char, std::char_traits<char>, std::allocator<char> >, std::__cxx11::basic_string<char, std::char_traits<char>, std::allocator<char> > > > >::begin
FUNC 47442 22 0 std::_Rb_tree_iterator<std::pair<const std::__cxx11::basic_string<char, std::char_traits<char>, std::allocator<char> >, std::__cxx11::basic_string<char, std::char_traits<char>, std::allocator<char> > > >::operator==
FUNC 47464 48 0 std::_Rb_tree<std::__cxx11::basic_string<char, std::char_traits<char>, std::allocator<char> >, std::pair<const std::__cxx11::basic_string<char, std::char_traits<char>, std::allocator<char> >, std::__cxx11::basic_string<char, std::char_traits<char>, std::allocator<char> > >, std::_Select1st<std::pair<const std::__cxx11::basic_string<char, std::char_traits<char>, std::allocator<char> >, std::__cxx11::basic_string<char, std::char_traits<char>, std::allocator<char> > > >, std::less<std::__cxx11::basic_string<char, std::char_traits<char>, std::allocator<char> > >, std::allocator<std::pair<const std::__cxx11::basic_string<char, std::char_traits<char>, std::allocator<char> >, std::__cxx11::basic_string<char, std::char_traits<char>, std::allocator<char> > > > >::_M_create_node<const std::pair<const std::__cxx11::basic_string<char, std::char_traits<char>, std::allocator<char> >, std::__cxx11::basic_string<char, std::char_traits<char>, std::allocator<char> > >&>
FUNC 474ac 1a 0 __gnu_cxx::__aligned_membuf<std::pair<const std::__cxx11::basic_string<char, std::char_traits<char>, std::allocator<char> >, std::__cxx11::basic_string<char, std::char_traits<char>, std::allocator<char> > > >::_M_ptr
FUNC 474c6 1f 0 __gnu_cxx::new_allocator<std::_Rb_tree_node<std::pair<const std::__cxx11::basic_string<char, std::char_traits<char>, std::allocator<char> >, std::__cxx11::basic_string<char, std::char_traits<char>, std::allocator<char> > > > >::destroy<std::pair<const std::__cxx11::basic_string<char>, std::__cxx11::basic_string<char> > >
FUNC 474e6 23 0 __gnu_cxx::new_allocator<std::_Rb_tree_node<std::pair<const std::__cxx11::basic_string<char, std::char_traits<char>, std::allocator<char> >, std::__cxx11::basic_string<char, std::char_traits<char>, std::allocator<char> > > > >::deallocate
FUNC 47509 1a 0 std::_Rb_tree<std::__cxx11::basic_string<char, std::char_traits<char>, std::allocator<char> >, std::pair<const std::__cxx11::basic_string<char, std::char_traits<char>, std::allocator<char> >, std::__cxx11::basic_string<char, std::char_traits<char>, std::allocator<char> > >, std::_Select1st<std::pair<const std::__cxx11::basic_string<char, std::char_traits<char>, std::allocator<char> >, std::__cxx11::basic_string<char, std::char_traits<char>, std::allocator<char> > > >, std::less<std::__cxx11::basic_string<char, std::char_traits<char>, std::allocator<char> > >, std::allocator<std::pair<const std::__cxx11::basic_string<char, std::char_traits<char>, std::allocator<char> >, std::__cxx11::basic_string<char, std::char_traits<char>, std::allocator<char> > > > >::_S_value
FUNC 47524 27 0 std::_Rb_tree<std::__cxx11::basic_string<char, std::char_traits<char>, std::allocator<char> >, std::pair<const std::__cxx11::basic_string<char, std::char_traits<char>, std::allocator<char> >, std::__cxx11::basic_string<char, std::char_traits<char>, std::allocator<char> > >, std::_Select1st<std::pair<const std::__cxx11::basic_string<char, std::char_traits<char>, std::allocator<char> >, std::__cxx11::basic_string<char, std::char_traits<char>, std::allocator<char> > > >, std::less<std::__cxx11::basic_string<char, std::char_traits<char>, std::allocator<char> > >, std::allocator<std::pair<const std::__cxx11::basic_string<char, std::char_traits<char>, std::allocator<char> >, std::__cxx11::basic_string<char, std::char_traits<char>, std::allocator<char> > > > >::_M_get_node
FUNC 4754c b 0 std::_Rb_tree_node_base::_Rb_tree_node_base
FUNC 47558 b 0 __gnu_cxx::__aligned_membuf<std::pair<const std::__cxx11::basic_string<char, std::char_traits<char>, std::allocator<char> >, std::__cxx11::basic_string<char, std::char_traits<char>, std::allocator<char> > > >::__aligned_membuf
FUNC 47564 2b 0 std::_Rb_tree_node<std::pair<const std::__cxx11::basic_string<char, std::char_traits<char>, std::allocator<char> >, std::__cxx11::basic_string<char, std::char_traits<char>, std::allocator<char> > > >::_Rb_tree_node
FUNC 47590 ab 0 std::_Rb_tree<std::__cxx11::basic_string<char, std::char_traits<char>, std::allocator<char> >, std::pair<const std::__cxx11::basic_string<char, std::char_traits<char>, std::allocator<char> >, std::__cxx11::basic_string<char, std::char_traits<char>, std::allocator<char> > >, std::_Select1st<std::pair<const std::__cxx11::basic_string<char, std::char_traits<char>, std::allocator<char> >, std::__cxx11::basic_string<char, std::char_traits<char>, std::allocator<char> > > >, std::less<std::__cxx11::basic_string<char, std::char_traits<char>, std::allocator<char> > >, std::allocator<std::pair<const std::__cxx11::basic_string<char, std::char_traits<char>, std::allocator<char> >, std::__cxx11::basic_string<char, std::char_traits<char>, std::allocator<char> > > > >::_M_construct_node<const std::pair<const std::__cxx11::basic_string<char, std::char_traits<char>, std::allocator<char> >, std::__cxx11::basic_string<char, std::char_traits<char>, std::allocator<char> > >&>
FUNC 4763c e 0 __gnu_cxx::__aligned_membuf<std::pair<const std::__cxx11::basic_string<char, std::char_traits<char>, std::allocator<char> >, std::__cxx11::basic_string<char, std::char_traits<char>, std::allocator<char> > > >::_M_addr
FUNC 4764a 2a 0 std::allocator_traits<std::allocator<std::_Rb_tree_node<std::pair<const std::__cxx11::basic_string<char, std::char_traits<char>, std::allocator<char> >, std::__cxx11::basic_string<char, std::char_traits<char>, std::allocator<char> > > > > >::allocate
FUNC 47674 39 0 std::allocator_traits<std::allocator<std::_Rb_tree_node<std::pair<const std::__cxx11::basic_string<char, std::char_traits<char>, std::allocator<char> >, std::__cxx11::basic_string<char, std::char_traits<char>, std::allocator<char> > > > > >::construct<std::pair<const std::__cxx11::basic_string<char>, std::__cxx11::basic_string<char> >, const std::pair<const std::__cxx11::basic_string<char, std::char_traits<char>, std::allocator<char> >, std::__cxx11::basic_string<char, std::char_traits<char>, std::allocator<char> > >&>
FUNC 476ae 4b 0 __gnu_cxx::new_allocator<std::_Rb_tree_node<std::pair<const std::__cxx11::basic_string<char, std::char_traits<char>, std::allocator<char> >, std::__cxx11::basic_string<char, std::char_traits<char>, std::allocator<char> > > > >::allocate
FUNC 476fa 62 0 std::pair<const std::__cxx11::basic_string<char, std::char_traits<char>, std::allocator<char> >, std::__cxx11::basic_string<char, std::char_traits<char>, std::allocator<char> > >::pair
FUNC 4775c 73 0 __gnu_cxx::new_allocator<std::_Rb_tree_node<std::pair<const std::__cxx11::basic_string<char, std::char_traits<char>, std::allocator<char> >, std::__cxx11::basic_string<char, std::char_traits<char>, std::allocator<char> > > > >::construct<std::pair<const std::__cxx11::basic_string<char>, std::__cxx11::basic_string<char> >, const std::pair<const std::__cxx11::basic_string<char, std::char_traits<char>, std::allocator<char> >, std::__cxx11::basic_string<char, std::char_traits<char>, std::allocator<char> > >&>
FUNC 477d0 14 0 __gnu_cxx::new_allocator<std::_Rb_tree_node<std::pair<const std::__cxx11::basic_string<char, std::char_traits<char>, std::allocator<char> >, std::__cxx11::basic_string<char, std::char_traits<char>, std::allocator<char> > > > >::max_size
FUNC 477e4 41 0 CrashupInitializationException::~CrashupInitializationException
FUNC 47826 26 0 CrashupInitializationException::~CrashupInitializationException
FUNC 4784c b8 0 Stats::Stats
FUNC 47904 149 0 Downloader::Downloader
FUNC 47a4e 14b 0 Downloader::downloadFile
FUNC 47b9a c8 0 Downloader::httpReadyRead
FUNC 47c62 341 0 Downloader::startRequest
FUNC 47fa4 201 0 Downloader::httpFinished
FUNC 481a6 cc 0 Downloader::openFileForWrite
FUNC 48272 17 0 std::__atomic_base<int>::__atomic_base
FUNC 4828a 23 0 std::atomic<int>::atomic
FUNC 482ae 23 0 QBasicAtomicInteger<int>::QBasicAtomicInteger
FUNC 482d2 23 0 QAtomicInteger<int>::QAtomicInteger
FUNC 482f6 23 0 QAtomicInt::QAtomicInt
FUNC 4831a 41 0 QtPrivate::RefCount::ref
FUNC 4835c 30 0 QByteArray::QByteArray
FUNC 4838c 25 0 QByteArray::operator+=
FUNC 483b2 25 0 QByteArray::operator+=
FUNC 483d7 80 0 operator+
FUNC 48457 85 0 operator+
FUNC 484dc 25 0 QString::operator+=
FUNC 48502 30 0 QString::QString
FUNC 48532 62 0 operator+
FUNC 48594 97 0 operator+
FUNC 4862b b 0 QtPrivate::ConnectionTypes<QtPrivate::List<>, true>::types
FUNC 48636 30 0 QtPrivate::QSlotObjectBase::QSlotObjectBase
FUNC 48666 b 0 QtPrivate::QSlotObjectBase::~QSlotObjectBase
FUNC 48672 48 0 QIODevice::write
FUNC 486ba 17 0 QFlags<QIODevice::OpenModeFlag>::QFlags
FUNC 486d2 34 0 NoOpenedFileException::NoOpenedFileException
FUNC 48706 1a 0 QBasicAtomicInteger<int>::ref
FUNC 48720 1b 0 std::vector<int, std::allocator<int> >::vector
FUNC 4873c 44 0 std::vector<int, std::allocator<int> >::~vector
FUNC 48780 e 0 std::move<int&>
FUNC 4878e 31 0 std::vector<int, std::allocator<int> >::push_back
FUNC 487bf a1 0 QObject::connect<void (QNetworkReply::*)(), void (Downloader::*)()>
FUNC 48860 a1 0 QObject::connect<void (QIODevice::*)(), void (Downloader::*)()>
FUNC 48902 26 0 std::vector<int, std::allocator<int> >::size
FUNC 48928 20 0 std::vector<int, std::allocator<int> >::operator[]
FUNC 48948 1a 0 QScopedPointer<QFile, QScopedPointerDeleter<QFile> >::QScopedPointer
FUNC 48962 26 0 QScopedPointer<QFile, QScopedPointerDeleter<QFile> >::~QScopedPointer
FUNC 48988 11 0 QScopedPointer<QFile, QScopedPointerDeleter<QFile> >::operator->
FUNC 4899a 24 0 QScopedPointer<QFile, QScopedPointerDeleter<QFile> >::take
FUNC 489be 1f 0 QAtomicOps<int>::ref<int>
FUNC 489de 1b 0 std::_Vector_base<int, std::allocator<int> >::_Vector_impl::~_Vector_impl
FUNC 489fa 1b 0 std::_Vector_base<int, std::allocator<int> >::_Vector_base
FUNC 48a16 50 0 std::_Vector_base<int, std::allocator<int> >::~_Vector_base
FUNC 48a66 e 0 std::_Vector_base<int, std::allocator<int> >::_M_get_Tp_allocator
FUNC 48a74 2a 0 std::_Destroy<int*, int>
FUNC 48a9e e 0 std::forward<int>
FUNC 48aac 82 0 std::vector<int, std::allocator<int> >::emplace_back<int>
FUNC 48b2e 4a 0 QtPrivate::QSlotObject<void (Downloader::*)(), QtPrivate::List<>, void>::QSlotObject
FUNC 48b78 2d 0 QScopedPointerDeleter<QFile>::cleanup
FUNC 48ba6 1a 0 std::__atomic_base<int>::operator++
FUNC 48bc0 3e 0 std::_Vector_base<int, std::allocator<int> >::_Vector_impl::_Vector_impl
FUNC 48bfe 1b 0 std::allocator<int>::~allocator
FUNC 48c1a 35 0 std::_Vector_base<int, std::allocator<int> >::_M_deallocate
FUNC 48c4f 26 0 std::_Destroy<int*>
FUNC 48c75 39 0 std::allocator_traits<std::allocator<int> >::construct<int, int>
FUNC 48cae 1ec 0 std::vector<int, std::allocator<int> >::_M_emplace_back_aux<int>
FUNC 48e9a 1b 0 QtPrivate::QSlotObject<void (Downloader::*)(), QtPrivate::List<>, void>::~QSlotObject
FUNC 48eb5 c0 0 QtPrivate::QSlotObject<void (Downloader::*)(), QtPrivate::List<>, void>::impl
FUNC 48f76 1b 0 std::allocator<int>::allocator
FUNC 48f92 b 0 __gnu_cxx::new_allocator<int>::~new_allocator
FUNC 48f9d 2e 0 std::allocator_traits<std::allocator<int> >::deallocate
FUNC 48fcb f 0 std::_Destroy_aux<true>::__destroy<int*>
FUNC 48fda 43 0 __gnu_cxx::new_allocator<int>::construct<int, int>
FUNC 4901e c9 0 std::vector<int, std::allocator<int> >::_M_check_len
FUNC 490e8 33 0 std::_Vector_base<int, std::allocator<int> >::_M_allocate
FUNC 4911b 54 0 std::__uninitialized_move_if_noexcept_a<int*, int*, std::allocator<int> >
FUNC 4916f 26 0 std::allocator_traits<std::allocator<int> >::destroy<int>
FUNC 49195 45 0 QtPrivate::FunctionPointer<void (Downloader::*)()>::call<QtPrivate::List<>, void>
FUNC 491da b 0 __gnu_cxx::new_allocator<int>::new_allocator
FUNC 491e6 23 0 __gnu_cxx::new_allocator<int>::deallocate
FUNC 4920a 22 0 std::vector<int, std::allocator<int> >::max_size
FUNC 4922c 2b 0 std::max<long unsigned int>
FUNC 49257 2a 0 std::allocator_traits<std::allocator<int> >::allocate
FUNC 49281 25 0 std::__make_move_if_noexcept_iterator<int*, std::move_iterator<int*> >
FUNC 492a6 31 0 std::__uninitialized_copy_a<std::move_iterator<int*>, int*, int>
FUNC 492d8 f 0 __gnu_cxx::new_allocator<int>::destroy<int>
FUNC 492e7 84 0 QtPrivate::FunctorCall<QtPrivate::IndexesList<>, QtPrivate::List<>, void, void (Downloader::*)()>::call
FUNC 4936b 1a 0 std::allocator_traits<std::allocator<int> >::max_size
FUNC 49386 e 0 std::_Vector_base<int, std::allocator<int> >::_M_get_Tp_allocator
FUNC 49394 42 0 __gnu_cxx::new_allocator<int>::allocate
FUNC 493d6 1a 0 std::move_iterator<int*>::move_iterator
FUNC 493f0 31 0 std::uninitialized_copy<std::move_iterator<int*>, int*>
FUNC 49422 1a 0 QtPrivate::ApplyReturnValue<void>::ApplyReturnValue
FUNC 4943c 14 0 __gnu_cxx::new_allocator<int>::max_size
FUNC 49450 2d 0 std::__uninitialized_copy<true>::__uninit_copy<std::move_iterator<int*>, int*>
FUNC 4947d 4c 0 std::copy<std::move_iterator<int*>, int*>
FUNC 494c9 1a 0 std::__miter_base<std::move_iterator<int*> >
FUNC 494e3 58 0 std::__copy_move_a2<true, int*, int*>
FUNC 4953b 1a 0 std::_Iter_base<std::move_iterator<int*>, true>::_S_base
FUNC 49555 1a 0 std::__niter_base<int*>
FUNC 4956f 31 0 std::__copy_move_a<true, int*, int*>
FUNC 495a0 11 0 std::move_iterator<int*>::base
FUNC 495b1 e 0 std::_Iter_base<int*, false>::_S_base
FUNC 495bf 65 0 std::__copy_move<true, true, std::random_access_iterator_tag>::__copy_m<int>
FUNC 49624 41 0 NoOpenedFileException::~NoOpenedFileException
FUNC 49666 26 0 NoOpenedFileException::~NoOpenedFileException
FUNC 4968c 15b 0 Downloader::qt_static_metacall
FUNC 497e8 48 0 Downloader::metaObject
FUNC 49830 50 0 Downloader::qt_metacast
FUNC 49880 84 0 Downloader::qt_metacall
FUNC 49904 4a 0 Downloader::downloadFinished
FUNC 4994e 81 0 Downloader::~Downloader
FUNC 499d0 26 0 Downloader::~Downloader
FUNC 499f6 83 0 crash_handling::dumpCallback
FUNC 49a7a 111 0 crash_handling::CrashHandlerPrivate::initCrashHandlerPrivate
FUNC 49b8c 31 0 crash_handling::CrashHandler::CrashHandler
FUNC 49bbe 31 0 crash_handling::CrashHandler::~CrashHandler
FUNC 49bf0 92 0 crash_handling::CrashHandler::instance
FUNC 49c82 29 0 crash_handling::CrashHandler::init
FUNC 49cac 1d 0 crash_handling::CrashHandler::setReportCrashesToSystem
FUNC 49cca 95 0 crash_handling::CrashHandler::writeMinidump
FUNC 49d60 2e 0 google_breakpad::MicrodumpExtraInfo::MicrodumpExtraInfo
FUNC 49d8e a6 0 google_breakpad::MinidumpDescriptor::MinidumpDescriptor
FUNC 49e34 12 0 google_breakpad::MinidumpDescriptor::path
FUNC 49e46 b 0 crash_handling::CrashHandlerPrivate::CrashHandlerPrivate
FUNC 49e52 b 0 crash_handling::CrashHandlerPrivate::~CrashHandlerPrivate
FUNC 49e5e 2f 0 google_breakpad::MinidumpDescriptor::~MinidumpDescriptor
FUNC 49e8e 83 0 crash_handling::CrashUploaderPrivate::CrashUploaderPrivate
FUNC 49f12 8d6 0 crash_handling::CrashUploaderPrivate::uploadMinidumpPrivate
FUNC 4a7e8 32b 0 crash_handling::CrashUploader::CrashUploader
FUNC 4ab14 c8 0 crash_handling::CrashUploader::~CrashUploader
FUNC 4abdc 26 0 crash_handling::CrashUploader::~CrashUploader
FUNC 4ac02 4da 0 crash_handling::CrashUploader::saveJson
FUNC 4b0dc 4bc 0 crash_handling::CrashUploader::uploadFinished
FUNC 4b598 1e7 0 crash_handling::CrashUploader::uploadPendingMinidumps
FUNC 4b77f 4f 0 qstrnlen
FUNC 4b7ce 29 0 QString::toUtf8
FUNC 4b7f8 5f 0 QString::QString
FUNC 4b858 71 0 QString::operator+=
FUNC 4b8ca b 0 QListSpecialMethods<QString>::~QListSpecialMethods
FUNC 4b8d6 1b 0 QStringList::QStringList
FUNC 4b8f2 1b 0 QStringList::~QStringList
FUNC 4b90e 29 0 QStringList::operator<<
FUNC 4b938 17 0 QFlags<QDir::Filter>::QFlags
FUNC 4b950 17 0 QFlags<QDir::SortFlag>::QFlags
FUNC 4b968 38 0 TODOException::TODOException
FUNC 4b9a0 34 0 UnexpectedHttpResponseException::UnexpectedHttpResponseException
FUNC 4b9d4 11 0 std::initializer_list<QPair<QString, QJsonValue> >::begin
FUNC 4b9e6 12 0 std::initializer_list<QPair<QString, QJsonValue> >::size
FUNC 4b9f8 36 0 std::initializer_list<QPair<QString, QJsonValue> >::end
FUNC 4ba2e 75 0 QJsonObject::QJsonObject
FUNC 4baa4 29 0 QJsonArray::operator<<
FUNC 4bace eb 0 google_breakpad::GoogleCrashdumpUploader::~GoogleCrashdumpUploader
FUNC 4bbba 62 0 QPair<QString, QJsonValue>::QPair
FUNC 4bc1c 2b 0 QPair<QString, QJsonValue>::~QPair
FUNC 4bc48 b 0 QListSpecialMethods<QString>::QListSpecialMethods
FUNC 4bc54 29 0 QList<QString>::QList
FUNC 4bc7e 47 0 QList<QString>::~QList
FUNC 4bcc6 f8 0 QList<QString>::append
FUNC 4bdbe 38 0 google_breakpad::scoped_ptr<google_breakpad::LibcurlWrapper>::~scoped_ptr
FUNC 4bdf6 a1 0 QObject::connect<void (QThread::*)(QThread::QPrivateSignal), void (QObject::*)()>
FUNC 4be97 a1 0 QObject::connect<void (crash_handling::CrashUploader::*)(const QString&), void (crash_handling::CrashUploaderPrivate::*)(const QString&)>
FUNC 4bf38 a1 0 QObject::connect<void (crash_handling::CrashUploaderPrivate::*)(bool, const QString&, const QString&), void (crash_handling::CrashUploader::*)(bool, const QString&, const QString&)>
FUNC 4bfda 47 0 QList<QFileInfo>::~QList
FUNC 4c022 40 0 QList<QFileInfo>::begin
FUNC 4c062 40 0 QList<QFileInfo>::end
FUNC 4c0a2 22 0 QList<QFileInfo>::iterator::operator!=
FUNC 4c0c4 20 0 QList<QFileInfo>::iterator::operator++
FUNC 4c0e4 1d 0 QList<QFileInfo>::iterator::operator*
FUNC 4c102 5e 0 QList<QString>::dealloc
FUNC 4c160 1d5 0 QList<QString>::detach_helper_grow
FUNC 4c336 3c 0 QList<QString>::node_construct
FUNC 4c372 1f 0 QList<QString>::node_destruct
FUNC 4c392 5e 0 QList<QString>::node_copy
FUNC 4c3f0 b 0 QtPrivate::ConnectionTypes<QtPrivate::List<QThread::QPrivateSignal>, false>::types
FUNC 4c3fc 4a 0 QtPrivate::QSlotObject<void (QObject::*)(), QtPrivate::List<>, void>::QSlotObject
FUNC 4c446 d 0 QtPrivate::ConnectionTypes<QtPrivate::List<const QString&>, true>::types
FUNC 4c454 4a 0 QtPrivate::QSlotObject<void (crash_handling::CrashUploaderPrivate::*)(const QString&), QtPrivate::List<const QString&>, void>::QSlotObject
FUNC 4c49e d 0 QtPrivate::ConnectionTypes<QtPrivate::List<bool, const QString&, const QString&>, true>::types
FUNC 4c4ac 4a 0 QtPrivate::QSlotObject<void (crash_handling::CrashUploader::*)(bool, const QString&, const QString&), QtPrivate::List<bool, const QString&, const QString&>, void>::QSlotObject
FUNC 4c4f6 b 0 QListSpecialMethods<QFileInfo>::~QListSpecialMethods
FUNC 4c502 5e 0 QList<QFileInfo>::dealloc
FUNC 4c560 2e 0 QList<QFileInfo>::detach
FUNC 4c58e 1a 0 QList<QFileInfo>::iterator::iterator
FUNC 4c5a8 e 0 QList<QFileInfo>::Node::t
FUNC 4c5b6 34 0 QList<QString>::node_destruct
FUNC 4c5ea 1b 0 QtPrivate::QSlotObject<void (QObject::*)(), QtPrivate::List<>, void>::~QSlotObject
FUNC 4c605 c0 0 QtPrivate::QSlotObject<void (QObject::*)(), QtPrivate::List<>, void>::impl
FUNC 4c6c6 1b 0 QtPrivate::QSlotObject<void (crash_handling::CrashUploaderPrivate::*)(const QString&), QtPrivate::List<const QString&>, void>::~QSlotObject
FUNC 4c6e1 c0 0 QtPrivate::QSlotObject<void (crash_handling::CrashUploaderPrivate::*)(const QString&), QtPrivate::List<const QString&>, void>::impl
FUNC 4c7a2 1b 0 QtPrivate::QSlotObject<void (crash_handling::CrashUploader::*)(bool, const QString&, const QString&), QtPrivate::List<bool, const QString&, const QString&>, void>::~QSlotObject
FUNC 4c7bd c0 0 QtPrivate::QSlotObject<void (crash_handling::CrashUploader::*)(bool, const QString&, const QString&), QtPrivate::List<bool, const QString&, const QString&>, void>::impl
FUNC 4c87e 34 0 QList<QFileInfo>::node_destruct
FUNC 4c8b2 27 0 QList<QFileInfo>::detach_helper
FUNC 4c8d9 45 0 QtPrivate::FunctionPointer<void (QObject::*)()>::call<QtPrivate::List<>, void>
FUNC 4c91e 45 0 QtPrivate::FunctionPointer<void (crash_handling::CrashUploaderPrivate::*)(const QString&)>::call<QtPrivate::List<const QString&>, void>
FUNC 4c963 45 0 QtPrivate::FunctionPointer<void (crash_handling::CrashUploader::*)(bool, const QString&, const QString&)>::call<QtPrivate::List<bool, const QString&, const QString&>, void>
FUNC 4c9a8 d0 0 QList<QFileInfo>::detach_helper
FUNC 4ca78 84 0 QtPrivate::FunctorCall<QtPrivate::IndexesList<>, QtPrivate::List<>, void, void (QObject::*)()>::call
FUNC 4cafc 92 0 QtPrivate::FunctorCall<QtPrivate::IndexesList<0>, QtPrivate::List<const QString&>, void, void (crash_handling::CrashUploaderPrivate::*)(const QString&)>::call
FUNC 4cb8e a9 0 QtPrivate::FunctorCall<QtPrivate::IndexesList<0, 1, 2>, QtPrivate::List<bool, const QString&, const QString&>, void, void (crash_handling::CrashUploader::*)(bool, const QString&, const QString&)>::call
FUNC 4cc38 c9 0 QList<QFileInfo>::node_copy
FUNC 4cd02 41 0 UnexpectedHttpResponseException::~UnexpectedHttpResponseException
FUNC 4cd44 26 0 UnexpectedHttpResponseException::~UnexpectedHttpResponseException
FUNC 4cd6a 41 0 TODOException::~TODOException
FUNC 4cdac 26 0 TODOException::~TODOException
FUNC 4cdd2 dd 0 crash_handling::CrashUploaderPrivate::qt_static_metacall
FUNC 4ceb0 48 0 crash_handling::CrashUploaderPrivate::metaObject
FUNC 4cef8 50 0 crash_handling::CrashUploaderPrivate::qt_metacast
FUNC 4cf48 84 0 crash_handling::CrashUploaderPrivate::qt_metacall
FUNC 4cfcc 73 0 crash_handling::CrashUploaderPrivate::resultReady
FUNC 4d040 e0 0 crash_handling::CrashUploader::qt_static_metacall
FUNC 4d120 48 0 crash_handling::CrashUploader::metaObject
FUNC 4d168 50 0 crash_handling::CrashUploader::qt_metacast
FUNC 4d1b8 84 0 crash_handling::CrashUploader::qt_metacall
FUNC 4d23c 4a 0 crash_handling::CrashUploader::uploadMinidump
FUNC 4d286 71 0 crash_handling::CrashUploaderPrivate::~CrashUploaderPrivate
FUNC 4d2f8 26 0 crash_handling::CrashUploaderPrivate::~CrashUploaderPrivate
FUNC 4d31e ba 0 sys_clone
FUNC 4d3d8 49 0 sys_close
FUNC 4d421 3d 0 sys_getpid
FUNC 4d45e 3d 0 sys__gettid
FUNC 4d49b 50 0 sys_munmap
FUNC 4d4eb 72 0 sys_prctl
FUNC 4d55d 56 0 sys_read
FUNC 4d5b3 50 0 sys_sigaltstack
FUNC 4d603 56 0 sys_write
FUNC 4d659 88 0 sys_mmap
FUNC 4d6e1 62 0 sys_wait4
FUNC 4d743 2a 0 sys_waitpid
FUNC 4d76d 48 0 sys_pipe
FUNC 4d7b5 22 0 sys_gettid
FUNC 4d7d7 2d 0 tgkill
FUNC 4d804 144 0 InstallAlternateStackLocked
FUNC 4d948 b1 0 RestoreAlternateStackLocked
FUNC 4d9f9 1d 0 InstallDefaultHandler
FUNC 4da16 20e 0 google_breakpad::ExceptionHandler::ExceptionHandler
FUNC 4dc24 120 0 google_breakpad::ExceptionHandler::~ExceptionHandler
FUNC 4dd44 15f 0 google_breakpad::ExceptionHandler::InstallHandlersLocked
FUNC 4dea4 ac 0 google_breakpad::ExceptionHandler::RestoreHandlersLocked
FUNC 4df50 1d4 0 google_breakpad::ExceptionHandler::SignalHandler
FUNC 4e124 52 0 google_breakpad::ExceptionHandler::ThreadEntry
FUNC 4e176 1ca 0 google_breakpad::ExceptionHandler::HandleSignal
FUNC 4e340 6c 0 google_breakpad::ExceptionHandler::SimulateSignalDelivery
FUNC 4e3ac 3a1 0 google_breakpad::ExceptionHandler::GenerateDump
FUNC 4e74e af 0 google_breakpad::ExceptionHandler::SendContinueSignalToChild
FUNC 4e7fe af 0 google_breakpad::ExceptionHandler::WaitForContinueSignal
FUNC 4e8ae 14e 0 google_breakpad::ExceptionHandler::DoDump
FUNC 4e9fc d7 0 google_breakpad::ExceptionHandler::WriteMinidump
FUNC 4ead4 1aa 0 google_breakpad::ExceptionHandler::WriteMinidump
FUNC 4ec7e 100 0 google_breakpad::ExceptionHandler::AddMappingInfo
FUNC 4ed7e b6 0 google_breakpad::ExceptionHandler::RegisterAppMemory
FUNC 4ee34 b3 0 google_breakpad::ExceptionHandler::UnregisterAppMemory
FUNC 4eee8 e5 0 google_breakpad::ExceptionHandler::WriteMinidumpForChild
FUNC 4efce 16 0 google_breakpad::MinidumpDescriptor::IsFD
FUNC 4efe4 11 0 google_breakpad::MinidumpDescriptor::fd
FUNC 4eff6 16 0 google_breakpad::MinidumpDescriptor::IsMicrodumpOnConsole
FUNC 4f00c 12 0 google_breakpad::MinidumpDescriptor::size_limit
FUNC 4f01e 45 0 google_breakpad::MinidumpDescriptor::microdump_extra_info
FUNC 4f064 4e 0 google_breakpad::PageAllocator::PageAllocator
FUNC 4f0b2 1b 0 google_breakpad::PageAllocator::~PageAllocator
FUNC 4f0ce 17b 0 google_breakpad::PageAllocator::Alloc
FUNC 4f24a 9d 0 google_breakpad::PageAllocator::GetNPages
FUNC 4f2e8 59 0 google_breakpad::PageAllocator::FreeAll
FUNC 4f342 1c 0 google_breakpad::AppMemory::operator==
FUNC 4f35e 24 0 google_breakpad::ExceptionHandler::IsOutOfProcess
FUNC 4f382 1b 0 std::__cxx11::list<google_breakpad::MappingEntry, std::allocator<google_breakpad::MappingEntry> >::~list
FUNC 4f39e 1b 0 std::__cxx11::list<google_breakpad::AppMemory, std::allocator<google_breakpad::AppMemory> >::~list
FUNC 4f3ba 54 0 google_breakpad::scoped_ptr<google_breakpad::CrashGenerationClient>::reset
FUNC 4f40e 11 0 google_breakpad::scoped_ptr<google_breakpad::CrashGenerationClient>::get
FUNC 4f41f 28 0 std::max<int>
FUNC 4f448 1a 0 google_breakpad::scoped_ptr<google_breakpad::CrashGenerationClient>::scoped_ptr
FUNC 4f462 38 0 google_breakpad::scoped_ptr<google_breakpad::CrashGenerationClient>::~scoped_ptr
FUNC 4f49a 1b 0 std::__cxx11::list<google_breakpad::MappingEntry, std::allocator<google_breakpad::MappingEntry> >::list
FUNC 4f4b6 1b 0 std::__cxx11::_List_base<google_breakpad::MappingEntry, std::allocator<google_breakpad::MappingEntry> >::_List_impl::~_List_impl
FUNC 4f4d2 27 0 std::__cxx11::_List_base<google_breakpad::MappingEntry, std::allocator<google_breakpad::MappingEntry> >::~_List_base
FUNC 4f4fa 1b 0 std::__cxx11::list<google_breakpad::AppMemory, std::allocator<google_breakpad::AppMemory> >::list
FUNC 4f516 1b 0 std::__cxx11::_List_base<google_breakpad::AppMemory, std::allocator<google_breakpad::AppMemory> >::_List_impl::~_List_impl
FUNC 4f532 27 0 std::__cxx11::_List_base<google_breakpad::AppMemory, std::allocator<google_breakpad::AppMemory> >::~_List_base
FUNC 4f55a 1b 0 std::vector<google_breakpad::ExceptionHandler*, std::allocator<google_breakpad::ExceptionHandler*> >::vector
FUNC 4f575 e 0 std::move<google_breakpad::ExceptionHandler*&>
FUNC 4f584 31 0 std::vector<google_breakpad::ExceptionHandler*, std::allocator<google_breakpad::ExceptionHandler*> >::push_back
FUNC 4f5b6 25 0 std::vector<google_breakpad::ExceptionHandler*, std::allocator<google_breakpad::ExceptionHandler*> >::begin
FUNC 4f5dc 29 0 std::vector<google_breakpad::ExceptionHandler*, std::allocator<google_breakpad::ExceptionHandler*> >::end
FUNC 4f605 38 0 std::find<__gnu_cxx::__normal_iterator<google_breakpad::ExceptionHandler**, std::vector<google_breakpad::ExceptionHandler*> >, google_breakpad::ExceptionHandler*>
FUNC 4f63e 29 0 __gnu_cxx::__normal_iterator<google_breakpad::ExceptionHandler* const*, std::vector<google_breakpad::ExceptionHandler*, std::allocator<google_breakpad::ExceptionHandler*> > >::__normal_iterator<google_breakpad::ExceptionHandler**>
FUNC 4f668 6f 0 std::vector<google_breakpad::ExceptionHandler*, std::allocator<google_breakpad::ExceptionHandler*> >::erase
FUNC 4f6d8 41 0 std::vector<google_breakpad::ExceptionHandler*, std::allocator<google_breakpad::ExceptionHandler*> >::empty
FUNC 4f71a 44 0 std::vector<google_breakpad::ExceptionHandler*, std::allocator<google_breakpad::ExceptionHandler*> >::~vector
FUNC 4f75e 26 0 std::vector<google_breakpad::ExceptionHandler*, std::allocator<google_breakpad::ExceptionHandler*> >::size
FUNC 4f784 20 0 std::vector<google_breakpad::ExceptionHandler*, std::allocator<google_breakpad::ExceptionHandler*> >::operator[]
FUNC 4f7a4 40 0 google_breakpad::scoped_ptr<google_breakpad::CrashGenerationClient>::operator->
FUNC 4f7e4 b 0 google_breakpad::ignore_result<int>
FUNC 4f7f0 35 0 std::__cxx11::list<google_breakpad::MappingEntry, std::allocator<google_breakpad::MappingEntry> >::push_back
FUNC 4f826 28 0 std::__cxx11::list<google_breakpad::AppMemory, std::allocator<google_breakpad::AppMemory> >::begin
FUNC 4f84e 25 0 std::__cxx11::list<google_breakpad::AppMemory, std::allocator<google_breakpad::AppMemory> >::end
FUNC 4f873 38 0 std::find<std::_List_iterator<google_breakpad::AppMemory>, void*>
FUNC 4f8ac 22 0 std::_List_iterator<google_breakpad::AppMemory>::operator!=
FUNC 4f8ce 35 0 std::__cxx11::list<google_breakpad::AppMemory, std::allocator<google_breakpad::AppMemory> >::push_back
FUNC 4f904 1d 0 std::_List_const_iterator<google_breakpad::AppMemory>::_List_const_iterator
FUNC 4f922 4a 0 std::__cxx11::list<google_breakpad::AppMemory, std::allocator<google_breakpad::AppMemory> >::erase
FUNC 4f96c 27 0 std::__cxx11::_List_base<google_breakpad::MappingEntry, std::allocator<google_breakpad::MappingEntry> >::_List_base
FUNC 4f994 1b 0 std::allocator<std::_List_node<google_breakpad::MappingEntry> >::~allocator
FUNC 4f9b0 6a 0 std::__cxx11::_List_base<google_breakpad::MappingEntry, std::allocator<google_breakpad::MappingEntry> >::_M_clear
FUNC 4fa1a 27 0 std::__cxx11::_List_base<google_breakpad::AppMemory, std::allocator<google_breakpad::AppMemory> >::_List_base
FUNC 4fa42 1b 0 std::allocator<std::_List_node<google_breakpad::AppMemory> >::~allocator
FUNC 4fa5e 6a 0 std::__cxx11::_List_base<google_breakpad::AppMemory, std::allocator<google_breakpad::AppMemory> >::_M_clear
FUNC 4fac8 1b 0 std::_Vector_base<google_breakpad::ExceptionHandler*, std::allocator<google_breakpad::ExceptionHandler*> >::_Vector_impl::~_Vector_impl
FUNC 4fae4 1b 0 std::_Vector_base<google_breakpad::ExceptionHandler*, std::allocator<google_breakpad::ExceptionHandler*> >::_Vector_base
FUNC 4fb00 50 0 std::_Vector_base<google_breakpad::ExceptionHandler*, std::allocator<google_breakpad::ExceptionHandler*> >::~_Vector_base
FUNC 4fb50 e 0 std::forward<google_breakpad::ExceptionHandler*>
FUNC 4fb5e 82 0 std::vector<google_breakpad::ExceptionHandler*, std::allocator<google_breakpad::ExceptionHandler*> >::emplace_back<google_breakpad::ExceptionHandler*>
FUNC 4fbe0 1d 0 __gnu_cxx::__normal_iterator<google_breakpad::ExceptionHandler**, std::vector<google_breakpad::ExceptionHandler*, std::allocator<google_breakpad::ExceptionHandler*> > >::__normal_iterator
FUNC 4fbfd 25 0 __gnu_cxx::__ops::__iter_equals_val<google_breakpad::ExceptionHandler* const>
FUNC 4fc22 47 0 std::__find_if<__gnu_cxx::__normal_iterator<google_breakpad::ExceptionHandler**, std::vector<google_breakpad::ExceptionHandler*> >, __gnu_cxx::__ops::_Iter_equals_val<google_breakpad::ExceptionHandler* const> >
FUNC 4fc6a e 0 __gnu_cxx::__normal_iterator<google_breakpad::ExceptionHandler**, std::vector<google_breakpad::ExceptionHandler*, std::allocator<google_breakpad::ExceptionHandler*> > >::base
FUNC 4fc78 30 0 std::vector<google_breakpad::ExceptionHandler*, std::allocator<google_breakpad::ExceptionHandler*> >::cbegin
FUNC 4fca8 43 0 __gnu_cxx::operator-<google_breakpad::ExceptionHandler* const*, std::vector<google_breakpad::ExceptionHandler*> >
FUNC 4fcec 3f 0 __gnu_cxx::__normal_iterator<google_breakpad::ExceptionHandler**, std::vector<google_breakpad::ExceptionHandler*, std::allocator<google_breakpad::ExceptionHandler*> > >::operator+
FUNC 4fd2c b8 0 std::vector<google_breakpad::ExceptionHandler*, std::allocator<google_breakpad::ExceptionHandler*> >::_M_erase
FUNC 4fde4 30 0 std::vector<google_breakpad::ExceptionHandler*, std::allocator<google_breakpad::ExceptionHandler*> >::begin
FUNC 4fe14 31 0 std::vector<google_breakpad::ExceptionHandler*, std::allocator<google_breakpad::ExceptionHandler*> >::end
FUNC 4fe45 3c 0 __gnu_cxx::operator==<google_breakpad::ExceptionHandler* const*, std::vector<google_breakpad::ExceptionHandler*> >
FUNC 4fe82 e 0 std::_Vector_base<google_breakpad::ExceptionHandler*, std::allocator<google_breakpad::ExceptionHandler*> >::_M_get_Tp_allocator
FUNC 4fe90 2a 0 std::_Destroy<google_breakpad::ExceptionHandler**, google_breakpad::ExceptionHandler*>
FUNC 4feba 25 0 std::__cxx11::list<google_breakpad::MappingEntry, std::allocator<google_breakpad::MappingEntry> >::end
FUNC 4fedf e 0 std::forward<const google_breakpad::MappingEntry&>
FUNC 4feee 5d 0 std::__cxx11::list<google_breakpad::MappingEntry, std::allocator<google_breakpad::MappingEntry> >::_M_insert<const google_breakpad::MappingEntry&>
FUNC 4ff4c 1a 0 std::_List_iterator<google_breakpad::AppMemory>::_List_iterator
FUNC 4ff66 25 0 __gnu_cxx::__ops::__iter_equals_val<void* const>
FUNC 4ff8b 47 0 std::__find_if<std::_List_iterator<google_breakpad::AppMemory>, __gnu_cxx::__ops::_Iter_equals_val<void* const> >
FUNC 4ffd2 e 0 std::forward<const google_breakpad::AppMemory&>
FUNC 4ffe0 5d 0 std::__cxx11::list<google_breakpad::AppMemory, std::allocator<google_breakpad::AppMemory> >::_M_insert<const google_breakpad::AppMemory&>
FUNC 5003e 69 0 std::__cxx11::list<google_breakpad::AppMemory, std::allocator<google_breakpad::AppMemory> >::_M_erase
FUNC 500a8 28 0 std::_List_const_iterator<google_breakpad::AppMemory>::_M_const_cast
FUNC 500d0 27 0 std::__cxx11::_List_base<google_breakpad::MappingEntry, std::allocator<google_breakpad::MappingEntry> >::_List_impl::_List_impl
FUNC 500f8 37 0 std::__cxx11::_List_base<google_breakpad::MappingEntry, std::allocator<google_breakpad::MappingEntry> >::_M_init
FUNC 50130 b 0 __gnu_cxx::new_allocator<std::_List_node<google_breakpad::MappingEntry> >::~new_allocator
FUNC 5013c e 0 std::__cxx11::_List_base<google_breakpad::MappingEntry, std::allocator<google_breakpad::MappingEntry> >::_M_get_Node_allocator
FUNC 5014a f 0 __gnu_cxx::new_allocator<std::_List_node<google_breakpad::MappingEntry> >::destroy<std::_List_node<google_breakpad::MappingEntry> >
FUNC 5015a 2b 0 std::__cxx11::_List_base<google_breakpad::MappingEntry, std::allocator<google_breakpad::MappingEntry> >::_M_put_node
FUNC 50186 27 0 std::__cxx11::_List_base<google_breakpad::AppMemory, std::allocator<google_breakpad::AppMemory> >::_List_impl::_List_impl
FUNC 501ae 37 0 std::__cxx11::_List_base<google_breakpad::AppMemory, std::allocator<google_breakpad::AppMemory> >::_M_init
FUNC 501e6 b 0 __gnu_cxx::new_allocator<std::_List_node<google_breakpad::AppMemory> >::~new_allocator
FUNC 501f2 e 0 std::__cxx11::_List_base<google_breakpad::AppMemory, std::allocator<google_breakpad::AppMemory> >::_M_get_Node_allocator
FUNC 50200 f 0 __gnu_cxx::new_allocator<std::_List_node<google_breakpad::AppMemory> >::destroy<std::_List_node<google_breakpad::AppMemory> >
FUNC 50210 2b 0 std::__cxx11::_List_base<google_breakpad::AppMemory, std::allocator<google_breakpad::AppMemory> >::_M_put_node
FUNC 5023c 3e 0 std::_Vector_base<google_breakpad::ExceptionHandler*, std::allocator<google_breakpad::ExceptionHandler*> >::_Vector_impl::_Vector_impl
FUNC 5027a 1b 0 std::allocator<google_breakpad::ExceptionHandler*>::~allocator
FUNC 50296 35 0 std::_Vector_base<google_breakpad::ExceptionHandler*, std::allocator<google_breakpad::ExceptionHandler*> >::_M_deallocate
FUNC 502cb 39 0 std::allocator_traits<std::allocator<google_breakpad::ExceptionHandler*> >::construct<google_breakpad::ExceptionHandler*, google_breakpad::ExceptionHandler*>
FUNC 50304 1ec 0 std::vector<google_breakpad::ExceptionHandler*, std::allocator<google_breakpad::ExceptionHandler*> >::_M_emplace_back_aux<google_breakpad::ExceptionHandler*>
FUNC 504f0 1a 0 __gnu_cxx::__ops::_Iter_equals_val<google_breakpad::ExceptionHandler* const>::_Iter_equals_val
FUNC 5050a a 0 std::__iterator_category<__gnu_cxx::__normal_iterator<google_breakpad::ExceptionHandler**, std::vector<google_breakpad::ExceptionHandler*> > >
FUNC 50514 19c 0 std::__find_if<__gnu_cxx::__normal_iterator<google_breakpad::ExceptionHandler**, std::vector<google_breakpad::ExceptionHandler*> >, __gnu_cxx::__ops::_Iter_equals_val<google_breakpad::ExceptionHandler* const> >
FUNC 506b0 1d 0 __gnu_cxx::__normal_iterator<google_breakpad::ExceptionHandler* const*, std::vector<google_breakpad::ExceptionHandler*, std::allocator<google_breakpad::ExceptionHandler*> > >::__normal_iterator
FUNC 506ce e 0 __gnu_cxx::__normal_iterator<google_breakpad::ExceptionHandler* const*, std::vector<google_breakpad::ExceptionHandler*, std::allocator<google_breakpad::ExceptionHandler*> > >::base
FUNC 506dc 3c 0 __gnu_cxx::operator!=<google_breakpad::ExceptionHandler**, std::vector<google_breakpad::ExceptionHandler*> >
FUNC 50718 4c 0 std::move<__gnu_cxx::__normal_iterator<google_breakpad::ExceptionHandler**, std::vector<google_breakpad::ExceptionHandler*> >, __gnu_cxx::__normal_iterator<google_breakpad::ExceptionHandler**, std::vector<google_breakpad::ExceptionHandler*> > >
FUNC 50764 26 0 std::allocator_traits<std::allocator<google_breakpad::ExceptionHandler*> >::destroy<google_breakpad::ExceptionHandler*>
FUNC 5078a 26 0 std::_Destroy<google_breakpad::ExceptionHandler**>
FUNC 507b0 1a 0 std::_List_iterator<google_breakpad::MappingEntry>::_List_iterator
FUNC 507ca 91 0 std::__cxx11::list<google_breakpad::MappingEntry, std::allocator<google_breakpad::MappingEntry> >::_M_create_node<const google_breakpad::MappingEntry&>
FUNC 5085c 26 0 std::__cxx11::_List_base<google_breakpad::MappingEntry, std::allocator<google_breakpad::MappingEntry> >::_M_inc_size
FUNC 50882 1a 0 __gnu_cxx::__ops::_Iter_equals_val<void* const>::_Iter_equals_val
FUNC 5089c a 0 std::__iterator_category<std::_List_iterator<google_breakpad::AppMemory> >
FUNC 508a6 69 0 std::__find_if<std::_List_iterator<google_breakpad::AppMemory>, __gnu_cxx::__ops::_Iter_equals_val<void* const> >
FUNC 50910 91 0 std::__cxx11::list<google_breakpad::AppMemory, std::allocator<google_breakpad::AppMemory> >::_M_create_node<const google_breakpad::AppMemory&>
FUNC 509a2 26 0 std::__cxx11::_List_base<google_breakpad::AppMemory, std::allocator<google_breakpad::AppMemory> >::_M_inc_size
FUNC 509c8 26 0 std::__cxx11::_List_base<google_breakpad::AppMemory, std::allocator<google_breakpad::AppMemory> >::_M_dec_size
FUNC 509ee 1b 0 std::allocator<std::_List_node<google_breakpad::MappingEntry> >::allocator
FUNC 50a0a 2e 0 std::_List_node<long unsigned int>::_List_node<>
FUNC 50a38 1b 0 std::__cxx11::_List_base<google_breakpad::MappingEntry, std::allocator<google_breakpad::MappingEntry> >::_M_set_size
FUNC 50a54 23 0 __gnu_cxx::new_allocator<std::_List_node<google_breakpad::MappingEntry> >::deallocate
FUNC 50a78 1b 0 std::allocator<std::_List_node<google_breakpad::AppMemory> >::allocator
FUNC 50a94 1b 0 std::__cxx11::_List_base<google_breakpad::AppMemory, std::allocator<google_breakpad::AppMemory> >::_M_set_size
FUNC 50ab0 23 0 __gnu_cxx::new_allocator<std::_List_node<google_breakpad::AppMemory> >::deallocate
FUNC 50ad4 1b 0 std::allocator<google_breakpad::ExceptionHandler*>::allocator
FUNC 50af0 b 0 __gnu_cxx::new_allocator<google_breakpad::ExceptionHandler*>::~new_allocator
FUNC 50afb 2e 0 std::allocator_traits<std::allocator<google_breakpad::ExceptionHandler*> >::deallocate
FUNC 50b2a 45 0 __gnu_cxx::new_allocator<google_breakpad::ExceptionHandler*>::construct<google_breakpad::ExceptionHandler*, google_breakpad::ExceptionHandler*>
FUNC 50b70 c9 0 std::vector<google_breakpad::ExceptionHandler*, std::allocator<google_breakpad::ExceptionHandler*> >::_M_check_len
FUNC 50c3a 33 0 std::_Vector_base<google_breakpad::ExceptionHandler*, std::allocator<google_breakpad::ExceptionHandler*> >::_M_allocate
FUNC 50c6d 54 0 std::__uninitialized_move_if_noexcept_a<google_breakpad::ExceptionHandler**, google_breakpad::ExceptionHandler**, std::allocator<google_breakpad::ExceptionHandler*> >
FUNC 50cc1 43 0 __gnu_cxx::operator-<google_breakpad::ExceptionHandler**, std::vector<google_breakpad::ExceptionHandler*> >
FUNC 50d04 31 0 __gnu_cxx::__ops::_Iter_equals_val<google_breakpad::ExceptionHandler* const>::operator()<__gnu_cxx::__normal_iterator<google_breakpad::ExceptionHandler**, std::vector<google_breakpad::ExceptionHandler*> > >
FUNC 50d36 20 0 __gnu_cxx::__normal_iterator<google_breakpad::ExceptionHandler**, std::vector<google_breakpad::ExceptionHandler*, std::allocator<google_breakpad::ExceptionHandler*> > >::operator++
FUNC 50d56 1a 0 std::__miter_base<__gnu_cxx::__normal_iterator<google_breakpad::ExceptionHandler**, std::vector<google_breakpad::ExceptionHandler*> > >
FUNC 50d70 73 0 std::__copy_move_a2<true, __gnu_cxx::__normal_iterator<google_breakpad::ExceptionHandler**, std::vector<google_breakpad::ExceptionHandler*> >, __gnu_cxx::__normal_iterator<google_breakpad::ExceptionHandler**, std::vector<google_breakpad::ExceptionHandler*> > >
FUNC 50de4 f 0 __gnu_cxx::new_allocator<google_breakpad::ExceptionHandler*>::destroy<google_breakpad::ExceptionHandler*>
FUNC 50df3 f 0 std::_Destroy_aux<true>::__destroy<google_breakpad::ExceptionHandler**>
FUNC 50e02 24 0 std::__cxx11::_List_base<google_breakpad::MappingEntry, std::allocator<google_breakpad::MappingEntry> >::_M_get_node
FUNC 50e26 4d 0 __gnu_cxx::new_allocator<std::_List_node<google_breakpad::MappingEntry> >::construct<std::_List_node<google_breakpad::MappingEntry>, const google_breakpad::MappingEntry&>
FUNC 50e74 39 0 __gnu_cxx::__ops::_Iter_equals_val<void* const>::operator()<std::_List_iterator<google_breakpad::AppMemory> >
FUNC 50eae 1f 0 std::_List_iterator<google_breakpad::AppMemory>::operator++
FUNC 50ece 24 0 std::__cxx11::_List_base<google_breakpad::AppMemory, std::allocator<google_breakpad::AppMemory> >::_M_get_node
FUNC 50ef2 4d 0 __gnu_cxx::new_allocator<std::_List_node<google_breakpad::AppMemory> >::construct<std::_List_node<google_breakpad::AppMemory>, const google_breakpad::AppMemory&>
FUNC 50f40 b 0 __gnu_cxx::new_allocator<std::_List_node<google_breakpad::MappingEntry> >::new_allocator
FUNC 50f4c b 0 __gnu_cxx::new_allocator<std::_List_node<google_breakpad::AppMemory> >::new_allocator
FUNC 50f58 b 0 __gnu_cxx::new_allocator<google_breakpad::ExceptionHandler*>::new_allocator
FUNC 50f64 23 0 __gnu_cxx::new_allocator<google_breakpad::ExceptionHandler*>::deallocate
FUNC 50f88 22 0 std::vector<google_breakpad::ExceptionHandler*, std::allocator<google_breakpad::ExceptionHandler*> >::max_size
FUNC 50faa 2a 0 std::allocator_traits<std::allocator<google_breakpad::ExceptionHandler*> >::allocate
FUNC 50fd4 25 0 std::__make_move_if_noexcept_iterator<google_breakpad::ExceptionHandler**, std::move_iterator<google_breakpad::ExceptionHandler**> >
FUNC 50ff9 31 0 std::__uninitialized_copy_a<std::move_iterator<google_breakpad::ExceptionHandler**>, google_breakpad::ExceptionHandler**, google_breakpad::ExceptionHandler*>
FUNC 5102a 11 0 __gnu_cxx::__normal_iterator<google_breakpad::ExceptionHandler**, std::vector<google_breakpad::ExceptionHandler*, std::allocator<google_breakpad::ExceptionHandler*> > >::operator*
FUNC 5103b e 0 std::_Iter_base<__gnu_cxx::__normal_iterator<google_breakpad::ExceptionHandler**, std::vector<google_breakpad::ExceptionHandler*, std::allocator<google_breakpad::ExceptionHandler*> > >, false>::_S_base
FUNC 51049 1a 0 std::__niter_base<__gnu_cxx::__normal_iterator<google_breakpad::ExceptionHandler**, std::vector<google_breakpad::ExceptionHandler*> > >
FUNC 51063 31 0 std::__copy_move_a<true, google_breakpad::ExceptionHandler**, google_breakpad::ExceptionHandler**>
FUNC 51094 45 0 __gnu_cxx::new_allocator<std::_List_node<google_breakpad::MappingEntry> >::allocate
FUNC 510da 52 0 std::_List_node<google_breakpad::MappingEntry>::_List_node<const google_breakpad::MappingEntry&>
FUNC 5112c 15 0 std::_List_iterator<google_breakpad::AppMemory>::operator*
FUNC 51142 42 0 __gnu_cxx::new_allocator<std::_List_node<google_breakpad::AppMemory> >::allocate
FUNC 51184 49 0 std::_List_node<google_breakpad::AppMemory>::_List_node<const google_breakpad::AppMemory&>
FUNC 511cd 1a 0 std::allocator_traits<std::allocator<google_breakpad::ExceptionHandler*> >::max_size
FUNC 511e8 e 0 std::_Vector_base<google_breakpad::ExceptionHandler*, std::allocator<google_breakpad::ExceptionHandler*> >::_M_get_Tp_allocator
FUNC 511f6 42 0 __gnu_cxx::new_allocator<google_breakpad::ExceptionHandler*>::allocate
FUNC 51238 1a 0 std::move_iterator<google_breakpad::ExceptionHandler**>::move_iterator
FUNC 51252 31 0 std::uninitialized_copy<std::move_iterator<google_breakpad::ExceptionHandler**>, google_breakpad::ExceptionHandler**>
FUNC 51283 1d 0 std::_Iter_base<__gnu_cxx::__normal_iterator<google_breakpad::ExceptionHandler**, std::vector<google_breakpad::ExceptionHandler*, std::allocator<google_breakpad::ExceptionHandler*> > >, true>::_S_base
FUNC 512a0 65 0 std::__copy_move<true, true, std::random_access_iterator_tag>::__copy_m<google_breakpad::ExceptionHandler*>
FUNC 51306 14 0 __gnu_cxx::new_allocator<std::_List_node<google_breakpad::MappingEntry> >::max_size
FUNC 5131a 14 0 __gnu_cxx::new_allocator<std::_List_node<google_breakpad::AppMemory> >::max_size
FUNC 5132e 14 0 __gnu_cxx::new_allocator<google_breakpad::ExceptionHandler*>::max_size
FUNC 51342 2d 0 std::__uninitialized_copy<true>::__uninit_copy<std::move_iterator<google_breakpad::ExceptionHandler**>, google_breakpad::ExceptionHandler**>
FUNC 5136f 4c 0 std::copy<std::move_iterator<google_breakpad::ExceptionHandler**>, google_breakpad::ExceptionHandler**>
FUNC 513bb 1a 0 std::__miter_base<std::move_iterator<google_breakpad::ExceptionHandler**> >
FUNC 513d5 58 0 std::__copy_move_a2<true, google_breakpad::ExceptionHandler**, google_breakpad::ExceptionHandler**>
FUNC 5142d 1a 0 std::_Iter_base<std::move_iterator<google_breakpad::ExceptionHandler**>, true>::_S_base
FUNC 51447 1a 0 std::__niter_base<google_breakpad::ExceptionHandler**>
FUNC 51462 11 0 std::move_iterator<google_breakpad::ExceptionHandler**>::base
FUNC 51473 e 0 std::_Iter_base<google_breakpad::ExceptionHandler**, false>::_S_base
FUNC 51482 c7 0 google_breakpad::MinidumpDescriptor::MinidumpDescriptor
FUNC 5154a e3 0 google_breakpad::MinidumpDescriptor::operator=
FUNC 5162e 1ca 0 google_breakpad::MinidumpDescriptor::UpdatePath
FUNC 517f8 56 0 sys_write
FUNC 5184e 27 0 logger::write
FUNC 51876 88 0 sys_mmap
FUNC 518fe da 0 MicrodumpWriter::MicrodumpWriter
FUNC 519d8 2e 0 MicrodumpWriter::~MicrodumpWriter
FUNC 51a06 ab 0 MicrodumpWriter::Init
FUNC 51ab2 9f 0 MicrodumpWriter::Dump
FUNC 51b52 42 0 MicrodumpWriter::LogLine
FUNC 51b94 2f 0 MicrodumpWriter::LogAppend
FUNC 51bc4 26 0 MicrodumpWriter::LogAppend
FUNC 51bea 55 0 MicrodumpWriter::LogAppend
FUNC 51c40 42 0 MicrodumpWriter::LogCommitLine
FUNC 51c82 67 0 MicrodumpWriter::DumpProductInformation
FUNC 51cea 1e7 0 MicrodumpWriter::DumpOSInformation
FUNC 51ed2 67 0 MicrodumpWriter::DumpGPUInformation
FUNC 51f3a 1fc 0 MicrodumpWriter::DumpThreadStack
FUNC 52136 1e1 0 MicrodumpWriter::DumpCrashingThread
FUNC 52318 4a 0 MicrodumpWriter::DumpCPUState
FUNC 52362 dd 0 MicrodumpWriter::HaveMappingInfo
FUNC 52440 3d4 0 MicrodumpWriter::DumpModule
FUNC 52814 174 0 MicrodumpWriter::DumpMappings
FUNC 52988 35 0 MicrodumpWriter::Alloc
FUNC 529bd 17e 0 google_breakpad::WriteMicrodump
FUNC 52b3c 72 0 MicrodumpWriter::LogAppend<unsigned char>
FUNC 52bae 6f 0 MicrodumpWriter::LogAppend<long unsigned int>
FUNC 52c1e 69 0 MicrodumpWriter::LogAppend<unsigned int>
FUNC 52c88 77 0 MicrodumpWriter::LogAppend<short unsigned int>
FUNC 52d00 12 0 google_breakpad::LinuxDumper::threads
FUNC 52d12 12 0 google_breakpad::LinuxDumper::mappings
FUNC 52d24 12 0 google_breakpad::LinuxDumper::allocator
FUNC 52d36 1b 0 google_breakpad::LinuxDumper::set_crash_address
FUNC 52d52 18 0 google_breakpad::LinuxDumper::set_crash_signal
FUNC 52d6a 11 0 google_breakpad::LinuxDumper::crash_thread
FUNC 52d7c 18 0 google_breakpad::LinuxDumper::set_crash_thread
FUNC 52d94 1b 0 google_breakpad::wasteful_vector<unsigned char>::~wasteful_vector
FUNC 52db0 1b 0 google_breakpad::auto_wasteful_vector<unsigned char, 20u>::~auto_wasteful_vector
FUNC 52dcb 2b 0 std::min<long unsigned int>
FUNC 52df6 27 0 std::vector<int, google_breakpad::PageStdAllocator<int> >::size
FUNC 52e1e 21 0 std::vector<int, google_breakpad::PageStdAllocator<int> >::operator[]
FUNC 52e40 28 0 std::__cxx11::list<google_breakpad::MappingEntry, std::allocator<google_breakpad::MappingEntry> >::begin
FUNC 52e68 25 0 std::__cxx11::list<google_breakpad::MappingEntry, std::allocator<google_breakpad::MappingEntry> >::end
FUNC 52e8e 22 0 std::_List_const_iterator<google_breakpad::MappingEntry>::operator!=
FUNC 52eb0 1f 0 std::_List_const_iterator<google_breakpad::MappingEntry>::operator++
FUNC 52ed0 21 0 std::_List_const_iterator<google_breakpad::MappingEntry>::operator->
FUNC 52ef2 1b 0 google_breakpad::PageStdAllocator<unsigned char>::~PageStdAllocator
FUNC 52f0e 81 0 google_breakpad::auto_wasteful_vector<unsigned char, 20u>::auto_wasteful_vector
FUNC 52f90 45 0 std::vector<unsigned char, google_breakpad::PageStdAllocator<unsigned char> >::~vector
FUNC 52fd6 29 0 std::vector<unsigned char, google_breakpad::PageStdAllocator<unsigned char> >::end
FUNC 53000 29 0 __gnu_cxx::__normal_iterator<unsigned char const*, std::vector<unsigned char, google_breakpad::PageStdAllocator<unsigned char> > >::__normal_iterator<unsigned char*>
FUNC 5302a ac 0 std::vector<unsigned char, google_breakpad::PageStdAllocator<unsigned char> >::insert<unsigned char const*, void>
FUNC 530d6 1d 0 std::vector<unsigned char, google_breakpad::PageStdAllocator<unsigned char> >::operator[]
FUNC 530f4 23 0 std::vector<unsigned char, google_breakpad::PageStdAllocator<unsigned char> >::size
FUNC 53118 27 0 std::vector<google_breakpad::MappingInfo*, google_breakpad::PageStdAllocator<google_breakpad::MappingInfo*> >::size
FUNC 53140 21 0 std::vector<google_breakpad::MappingInfo*, google_breakpad::PageStdAllocator<google_breakpad::MappingInfo*> >::operator[]
FUNC 53162 1a 0 std::_List_const_iterator<google_breakpad::MappingEntry>::_List_const_iterator
FUNC 5317c e 0 std::__addressof<const google_breakpad::MappingEntry>
FUNC 5318a 4a 0 google_breakpad::PageStdAllocator<unsigned char>::PageStdAllocator
FUNC 531d4 1b 0 std::allocator<unsigned char>::~allocator
FUNC 531f0 26 0 std::allocator<unsigned char>::allocator
FUNC 53216 26 0 google_breakpad::wasteful_vector<unsigned char>::wasteful_vector
FUNC 5323c 137 0 std::vector<unsigned char, google_breakpad::PageStdAllocator<unsigned char> >::reserve
FUNC 53374 1b 0 std::_Vector_base<unsigned char, google_breakpad::PageStdAllocator<unsigned char> >::_Vector_impl::~_Vector_impl
FUNC 53390 4e 0 std::_Vector_base<unsigned char, google_breakpad::PageStdAllocator<unsigned char> >::~_Vector_base
FUNC 533de e 0 std::_Vector_base<unsigned char, google_breakpad::PageStdAllocator<unsigned char> >::_M_get_Tp_allocator
FUNC 533ec 46 0 std::_Destroy<unsigned char*, google_breakpad::PageStdAllocator<unsigned char> >
FUNC 53432 1d 0 __gnu_cxx::__normal_iterator<unsigned char*, std::vector<unsigned char, google_breakpad::PageStdAllocator<unsigned char> > >::__normal_iterator
FUNC 53450 e 0 __gnu_cxx::__normal_iterator<unsigned char*, std::vector<unsigned char, google_breakpad::PageStdAllocator<unsigned char> > >::base
FUNC 5345e 31 0 std::vector<unsigned char, google_breakpad::PageStdAllocator<unsigned char> >::cbegin
FUNC 5348f 3f 0 __gnu_cxx::operator-<unsigned char const*, std::vector<unsigned char, google_breakpad::PageStdAllocator<unsigned char> > >
FUNC 534ce 29 0 std::vector<unsigned char, google_breakpad::PageStdAllocator<unsigned char> >::begin
FUNC 534f8 3b 0 __gnu_cxx::__normal_iterator<unsigned char*, std::vector<unsigned char, google_breakpad::PageStdAllocator<unsigned char> > >::operator+
FUNC 53534 3d 0 std::vector<unsigned char, google_breakpad::PageStdAllocator<unsigned char> >::_M_insert_dispatch<unsigned char const*>
FUNC 53572 1b 0 std::allocator<unsigned char>::allocator
FUNC 5358e b 0 __gnu_cxx::new_allocator<unsigned char>::~new_allocator
FUNC 5359a f 0 __gnu_cxx::new_allocator<unsigned char>::new_allocator
FUNC 535aa 26 0 std::vector<unsigned char, google_breakpad::PageStdAllocator<unsigned char> >::vector
FUNC 535d0 22 0 std::vector<unsigned char, google_breakpad::PageStdAllocator<unsigned char> >::max_size
FUNC 535f2 23 0 std::vector<unsigned char, google_breakpad::PageStdAllocator<unsigned char> >::capacity
FUNC 53615 25 0 std::__make_move_if_noexcept_iterator<unsigned char*, std::move_iterator<unsigned char*> >
FUNC 5363a 97 0 std::vector<unsigned char, google_breakpad::PageStdAllocator<unsigned char> >::_M_allocate_and_copy<std::move_iterator<unsigned char*> >
FUNC 536d2 35 0 std::_Vector_base<unsigned char, google_breakpad::PageStdAllocator<unsigned char> >::_M_deallocate
FUNC 53707 e 0 std::__addressof<unsigned char>
FUNC 53715 26 0 std::allocator_traits<google_breakpad::PageStdAllocator<unsigned char> >::destroy<unsigned char>
FUNC 5373c 1d 0 __gnu_cxx::__normal_iterator<unsigned char const*, std::vector<unsigned char, google_breakpad::PageStdAllocator<unsigned char> > >::__normal_iterator
FUNC 5375a e 0 __gnu_cxx::__normal_iterator<unsigned char const*, std::vector<unsigned char, google_breakpad::PageStdAllocator<unsigned char> > >::base
FUNC 53768 3d2 0 std::vector<unsigned char, google_breakpad::PageStdAllocator<unsigned char> >::_M_range_insert<unsigned char const*>
FUNC 53b3a b 0 __gnu_cxx::new_allocator<unsigned char>::new_allocator
FUNC 53b46 26 0 std::_Vector_base<unsigned char, google_breakpad::PageStdAllocator<unsigned char> >::_Vector_base
FUNC 53b6c 1f 0 std::allocator_traits<google_breakpad::PageStdAllocator<unsigned char> >::max_size
FUNC 53b8c e 0 std::_Vector_base<unsigned char, google_breakpad::PageStdAllocator<unsigned char> >::_M_get_Tp_allocator
FUNC 53b9a 1a 0 std::move_iterator<unsigned char*>::move_iterator
FUNC 53bb4 33 0 std::_Vector_base<unsigned char, google_breakpad::PageStdAllocator<unsigned char> >::_M_allocate
FUNC 53be7 bf 0 std::__uninitialized_copy_a<std::move_iterator<unsigned char*>, unsigned char*, google_breakpad::PageStdAllocator<unsigned char> >
FUNC 53ca6 2e 0 std::allocator_traits<google_breakpad::PageStdAllocator<unsigned char> >::deallocate
FUNC 53cd4 26 0 std::allocator_traits<google_breakpad::PageStdAllocator<unsigned char> >::_S_destroy<unsigned char>
FUNC 53cfa 3f 0 std::distance<unsigned char const*>
FUNC 53d39 3f 0 __gnu_cxx::operator-<unsigned char*, std::vector<unsigned char, google_breakpad::PageStdAllocator<unsigned char> > >
FUNC 53d78 54 0 std::__uninitialized_move_a<unsigned char*, unsigned char*, google_breakpad::PageStdAllocator<unsigned char> >
FUNC 53dcc 4c 0 std::move_backward<unsigned char*, unsigned char*>
FUNC 53e18 4c 0 std::copy<unsigned char const*, __gnu_cxx::__normal_iterator<unsigned char*, std::vector<unsigned char, google_breakpad::PageStdAllocator<unsigned char> > > >
FUNC 53e64 48 0 std::advance<unsigned char const*, long unsigned int>
FUNC 53eac 9d 0 std::__uninitialized_copy_a<unsigned char const*, unsigned char*, google_breakpad::PageStdAllocator<unsigned char> >
FUNC 53f4a c9 0 std::vector<unsigned char, google_breakpad::PageStdAllocator<unsigned char> >::_M_check_len
FUNC 54013 54 0 std::__uninitialized_move_if_noexcept_a<unsigned char*, unsigned char*, google_breakpad::PageStdAllocator<unsigned char> >
FUNC 54068 54 0 google_breakpad::PageStdAllocator<unsigned char>::PageStdAllocator
FUNC 540bc 4a 0 std::_Vector_base<unsigned char, google_breakpad::PageStdAllocator<unsigned char> >::_Vector_impl::_Vector_impl
FUNC 54106 1d 0 std::allocator_traits<google_breakpad::PageStdAllocator<unsigned char> >::_S_max_size<const google_breakpad::PageStdAllocator<unsigned char>, void>
FUNC 54123 2a 0 std::allocator_traits<google_breakpad::PageStdAllocator<unsigned char> >::allocate
FUNC 5414d 28 0 std::operator!=<unsigned char*>
FUNC 54176 20 0 std::move_iterator<unsigned char*>::operator++
FUNC 54196 11 0 std::move_iterator<unsigned char*>::operator*
FUNC 541a7 e 0 std::forward<unsigned char>
FUNC 541b5 39 0 std::allocator_traits<google_breakpad::PageStdAllocator<unsigned char> >::construct<unsigned char, unsigned char>
FUNC 541ee 13 0 google_breakpad::PageStdAllocator<unsigned char>::deallocate
FUNC 54202 f 0 __gnu_cxx::new_allocator<unsigned char>::destroy<unsigned char>
FUNC 54211 a 0 std::__iterator_category<unsigned char const*>
FUNC 5421b 1c 0 std::__distance<unsigned char const*>
FUNC 54237 25 0 std::make_move_iterator<unsigned char*>
FUNC 5425c 1a 0 std::__miter_base<unsigned char*>
FUNC 54276 58 0 std::__copy_move_backward_a2<true, unsigned char*, unsigned char*>
FUNC 542ce 1a 0 std::__miter_base<unsigned char const*>
FUNC 542e8 73 0 std::__copy_move_a2<false, unsigned char const*, __gnu_cxx::__normal_iterator<unsigned char*, std::vector<unsigned char, google_breakpad::PageStdAllocator<unsigned char> > > >
FUNC 5435b 24 0 std::__advance<unsigned char const*, long int>
FUNC 5437f e 0 std::forward<unsigned char const&>
FUNC 5438d 39 0 std::allocator_traits<google_breakpad::PageStdAllocator<unsigned char> >::construct<unsigned char, unsigned char const&>
FUNC 543c6 11 0 __gnu_cxx::new_allocator<unsigned char>::max_size
FUNC 543d8 4c 0 google_breakpad::PageStdAllocator<unsigned char>::allocate
FUNC 54424 39 0 std::operator==<unsigned char*>
FUNC 5445d 39 0 std::allocator_traits<google_breakpad::PageStdAllocator<unsigned char> >::_S_construct<unsigned char, unsigned char>
FUNC 54496 e 0 std::_Iter_base<unsigned char*, false>::_S_base
FUNC 544a4 1a 0 std::__niter_base<unsigned char*>
FUNC 544be 31 0 std::__copy_move_backward_a<true, unsigned char*, unsigned char*>
FUNC 544ef e 0 std::_Iter_base<unsigned char const*, false>::_S_base
FUNC 544fd 1a 0 std::__niter_base<unsigned char const*>
FUNC 54517 1a 0 std::__niter_base<__gnu_cxx::__normal_iterator<unsigned char*, std::vector<unsigned char, google_breakpad::PageStdAllocator<unsigned char> > > >
FUNC 54531 31 0 std::__copy_move_a<false, unsigned char const*, unsigned char*>
FUNC 54562 39 0 std::allocator_traits<google_breakpad::PageStdAllocator<unsigned char> >::_S_construct<unsigned char, unsigned char const&>
FUNC 5459c 11 0 std::move_iterator<unsigned char*>::base
FUNC 545ae 44 0 __gnu_cxx::new_allocator<unsigned char>::construct<unsigned char, unsigned char>
FUNC 545f2 64 0 std::__copy_move_backward<true, true, std::random_access_iterator_tag>::__copy_move_b<unsigned char>
FUNC 54656 1d 0 std::_Iter_base<__gnu_cxx::__normal_iterator<unsigned char*, std::vector<unsigned char, google_breakpad::PageStdAllocator<unsigned char> > >, true>::_S_base
FUNC 54673 51 0 std::__copy_move<false, true, std::random_access_iterator_tag>::__copy_m<unsigned char>
FUNC 546c4 44 0 __gnu_cxx::new_allocator<unsigned char>::construct<unsigned char, unsigned char const&>
FUNC 54708 41 0 google_breakpad::LinuxPtraceDumper::~LinuxPtraceDumper
FUNC 5474a 26 0 google_breakpad::LinuxPtraceDumper::~LinuxPtraceDumper
FUNC 54770 49 0 sys_close
FUNC 547b9 3d 0 sys_getpid
FUNC 547f6 50 0 sys_munmap
FUNC 54846 57 0 sys_open
FUNC 5489d 56 0 sys_read
FUNC 548f3 50 0 sys_stat
FUNC 54943 88 0 sys_mmap
FUNC 549cb 2f 0 IsMappedFileOpenUnsafe
FUNC 549fa 192 0 google_breakpad::LinuxDumper::LinuxDumper
FUNC 54b8c 77 0 google_breakpad::LinuxDumper::~LinuxDumper
FUNC 54c04 26 0 google_breakpad::LinuxDumper::~LinuxDumper
FUNC 54c2a 60 0 google_breakpad::LinuxDumper::Init
FUNC 54c8a f 0 google_breakpad::LinuxDumper::LateInit
FUNC 54c9a 2db 0 google_breakpad::LinuxDumper::ElfFileIdentifierForMapping
FUNC 54f76 6a 0 google_breakpad::LinuxDumper::GetMappingAbsolutePath
FUNC 54fe0 17a 0 ElfFileSoNameFromMappedFile
FUNC 5515a 141 0 ElfFileSoName
FUNC 5529c 124 0 google_breakpad::LinuxDumper::GetMappingEffectiveNameAndPath
FUNC 553c0 110 0 google_breakpad::LinuxDumper::ReadAuxv
FUNC 554d0 655 0 google_breakpad::LinuxDumper::EnumerateMappings
FUNC 55b26 ac 0 google_breakpad::LinuxDumper::GetStackInfo
FUNC 55bd2 e4 0 google_breakpad::LinuxDumper::FindMapping
FUNC 55cb6 232 0 google_breakpad::LinuxDumper::HandleDeletedFileInMapping
FUNC 55ee8 25 0 operator new
FUNC 55f0e 2a 0 google_breakpad::LineReader::LineReader
FUNC 55f38 1a9 0 google_breakpad::LineReader::GetNextLine
FUNC 560e2 88 0 google_breakpad::LineReader::PopLine
FUNC 5616a 11 0 google_breakpad::MemoryRange::data
FUNC 5617c 12 0 google_breakpad::MemoryRange::length
FUNC 5618e 1a 0 google_breakpad::MemoryMappedFile::data
FUNC 561a8 1a 0 google_breakpad::MemoryMappedFile::size
FUNC 561c2 1b 0 google_breakpad::wasteful_vector<int>::~wasteful_vector
FUNC 561de 1b 0 google_breakpad::wasteful_vector<google_breakpad::MappingInfo*>::~wasteful_vector
FUNC 561fa 1b 0 google_breakpad::wasteful_vector<long unsigned int>::~wasteful_vector
FUNC 56216 1b 0 google_breakpad::PageStdAllocator<int>::~PageStdAllocator
FUNC 56232 7b 0 google_breakpad::wasteful_vector<int>::wasteful_vector
FUNC 562ae 45 0 std::vector<int, google_breakpad::PageStdAllocator<int> >::~vector
FUNC 562f4 1b 0 google_breakpad::PageStdAllocator<google_breakpad::MappingInfo*>::~PageStdAllocator
FUNC 56310 7b 0 google_breakpad::wasteful_vector<google_breakpad::MappingInfo*>::wasteful_vector
FUNC 5638c 45 0 std::vector<google_breakpad::MappingInfo*, google_breakpad::PageStdAllocator<google_breakpad::MappingInfo*> >::~vector
FUNC 563d2 1b 0 google_breakpad::PageStdAllocator<long unsigned int>::~PageStdAllocator
FUNC 563ee 7b 0 google_breakpad::wasteful_vector<long unsigned int>::wasteful_vector
FUNC 5646a 45 0 std::vector<long unsigned int, google_breakpad::PageStdAllocator<long unsigned int> >::~vector
FUNC 564b0 8d 0 std::vector<long unsigned int, google_breakpad::PageStdAllocator<long unsigned int> >::resize
FUNC 5653e 21 0 std::vector<google_breakpad::MappingInfo*, google_breakpad::PageStdAllocator<google_breakpad::MappingInfo*> >::operator[]
FUNC 56560 21 0 std::vector<long unsigned int, google_breakpad::PageStdAllocator<long unsigned int> >::operator[]
FUNC 56582 41 0 std::vector<google_breakpad::MappingInfo*, google_breakpad::PageStdAllocator<google_breakpad::MappingInfo*> >::empty
FUNC 565c4 3f 0 std::vector<google_breakpad::MappingInfo*, google_breakpad::PageStdAllocator<google_breakpad::MappingInfo*> >::back
FUNC 56604 8d 0 std::vector<google_breakpad::MappingInfo*, google_breakpad::PageStdAllocator<google_breakpad::MappingInfo*> >::resize
FUNC 56692 6c 0 std::vector<google_breakpad::MappingInfo*, google_breakpad::PageStdAllocator<google_breakpad::MappingInfo*> >::push_back
FUNC 566fe 2a 0 google_breakpad::SafeReadLink<255ul>
FUNC 56728 42 0 google_breakpad::PageStdAllocator<int>::PageStdAllocator
FUNC 5676a 26 0 std::vector<int, google_breakpad::PageStdAllocator<int> >::vector
FUNC 56790 147 0 std::vector<int, google_breakpad::PageStdAllocator<int> >::reserve
FUNC 568d8 1b 0 std::_Vector_base<int, google_breakpad::PageStdAllocator<int> >::_Vector_impl::~_Vector_impl
FUNC 568f4 52 0 std::_Vector_base<int, google_breakpad::PageStdAllocator<int> >::~_Vector_base
FUNC 56946 e 0 std::_Vector_base<int, google_breakpad::PageStdAllocator<int> >::_M_get_Tp_allocator
FUNC 56954 46 0 std::_Destroy<int*, google_breakpad::PageStdAllocator<int> >
FUNC 5699a 42 0 google_breakpad::PageStdAllocator<google_breakpad::MappingInfo*>::PageStdAllocator
FUNC 569dc 1b 0 std::allocator<google_breakpad::MappingInfo*>::~allocator
FUNC 569f8 26 0 std::vector<google_breakpad::MappingInfo*, google_breakpad::PageStdAllocator<google_breakpad::MappingInfo*> >::vector
FUNC 56a1e 147 0 std::vector<google_breakpad::MappingInfo*, google_breakpad::PageStdAllocator<google_breakpad::MappingInfo*> >::reserve
FUNC 56b66 1b 0 std::_Vector_base<google_breakpad::MappingInfo*, google_breakpad::PageStdAllocator<google_breakpad::MappingInfo*> >::_Vector_impl::~_Vector_impl
FUNC 56b82 52 0 std::_Vector_base<google_breakpad::MappingInfo*, google_breakpad::PageStdAllocator<google_breakpad::MappingInfo*> >::~_Vector_base
FUNC 56bd4 e 0 std::_Vector_base<google_breakpad::MappingInfo*, google_breakpad::PageStdAllocator<google_breakpad::MappingInfo*> >::_M_get_Tp_allocator
FUNC 56be2 46 0 std::_Destroy<google_breakpad::MappingInfo**, google_breakpad::PageStdAllocator<google_breakpad::MappingInfo*> >
FUNC 56c28 42 0 google_breakpad::PageStdAllocator<long unsigned int>::PageStdAllocator
FUNC 56c6a 1b 0 std::allocator<long unsigned int>::~allocator
FUNC 56c86 26 0 std::vector<long unsigned int, google_breakpad::PageStdAllocator<long unsigned int> >::vector
FUNC 56cac 147 0 std::vector<long unsigned int, google_breakpad::PageStdAllocator<long unsigned int> >::reserve
FUNC 56df4 1b 0 std::_Vector_base<long unsigned int, google_breakpad::PageStdAllocator<long unsigned int> >::_Vector_impl::~_Vector_impl
FUNC 56e10 52 0 std::_Vector_base<long unsigned int, google_breakpad::PageStdAllocator<long unsigned int> >::~_Vector_base
FUNC 56e62 e 0 std::_Vector_base<long unsigned int, google_breakpad::PageStdAllocator<long unsigned int> >::_M_get_Tp_allocator
FUNC 56e70 46 0 std::_Destroy<long unsigned int*, google_breakpad::PageStdAllocator<long unsigned int> >
FUNC 56eb6 27 0 std::vector<long unsigned int, google_breakpad::PageStdAllocator<long unsigned int> >::size
FUNC 56ede 20e 0 std::vector<long unsigned int, google_breakpad::PageStdAllocator<long unsigned int> >::_M_default_append
FUNC 570ec 45 0 std::vector<long unsigned int, google_breakpad::PageStdAllocator<long unsigned int> >::_M_erase_at_end
FUNC 57132 31 0 std::vector<google_breakpad::MappingInfo*, google_breakpad::PageStdAllocator<google_breakpad::MappingInfo*> >::begin
FUNC 57164 31 0 std::vector<google_breakpad::MappingInfo*, google_breakpad::PageStdAllocator<google_breakpad::MappingInfo*> >::end
FUNC 57195 3c 0 __gnu_cxx::operator==<google_breakpad::MappingInfo* const*, std::vector<google_breakpad::MappingInfo*, google_breakpad::PageStdAllocator<google_breakpad::MappingInfo*> > >
FUNC 571d2 29 0 std::vector<google_breakpad::MappingInfo*, google_breakpad::PageStdAllocator<google_breakpad::MappingInfo*> >::end
FUNC 571fc 42 0 __gnu_cxx::__normal_iterator<google_breakpad::MappingInfo**, std::vector<google_breakpad::MappingInfo*, google_breakpad::PageStdAllocator<google_breakpad::MappingInfo*> > >::operator-
FUNC 5723e 11 0 __gnu_cxx::__normal_iterator<google_breakpad::MappingInfo**, std::vector<google_breakpad::MappingInfo*, google_breakpad::PageStdAllocator<google_breakpad::MappingInfo*> > >::operator*
FUNC 57250 20e 0 std::vector<google_breakpad::MappingInfo*, google_breakpad::PageStdAllocator<google_breakpad::MappingInfo*> >::_M_default_append
FUNC 5745e 45 0 std::vector<google_breakpad::MappingInfo*, google_breakpad::PageStdAllocator<google_breakpad::MappingInfo*> >::_M_erase_at_end
FUNC 574a3 e 0 std::forward<google_breakpad::MappingInfo* const&>
FUNC 574b1 39 0 std::allocator_traits<google_breakpad::PageStdAllocator<google_breakpad::MappingInfo*> >::construct<google_breakpad::MappingInfo*, google_breakpad::MappingInfo* const&>
FUNC 574ea 1f1 0 std::vector<google_breakpad::MappingInfo*, google_breakpad::PageStdAllocator<google_breakpad::MappingInfo*> >::_M_emplace_back_aux<google_breakpad::MappingInfo* const&>
FUNC 576dc 26 0 std::_Vector_base<int, google_breakpad::PageStdAllocator<int> >::_Vector_base
FUNC 57702 22 0 std::vector<int, google_breakpad::PageStdAllocator<int> >::max_size
FUNC 57724 27 0 std::vector<int, google_breakpad::PageStdAllocator<int> >::capacity
FUNC 5774c 97 0 std::vector<int, google_breakpad::PageStdAllocator<int> >::_M_allocate_and_copy<std::move_iterator<int*> >
FUNC 577e4 35 0 std::_Vector_base<int, google_breakpad::PageStdAllocator<int> >::_M_deallocate
FUNC 57819 e 0 std::__addressof<int>
FUNC 57827 26 0 std::allocator_traits<google_breakpad::PageStdAllocator<int> >::destroy<int>
FUNC 5784e 1b 0 std::allocator<google_breakpad::MappingInfo*>::allocator
FUNC 5786a b 0 __gnu_cxx::new_allocator<google_breakpad::MappingInfo*>::~new_allocator
FUNC 57876 26 0 std::_Vector_base<google_breakpad::MappingInfo*, google_breakpad::PageStdAllocator<google_breakpad::MappingInfo*> >::_Vector_base
FUNC 5789c 22 0 std::vector<google_breakpad::MappingInfo*, google_breakpad::PageStdAllocator<google_breakpad::MappingInfo*> >::max_size
FUNC 578be 27 0 std::vector<google_breakpad::MappingInfo*, google_breakpad::PageStdAllocator<google_breakpad::MappingInfo*> >::capacity
FUNC 578e5 25 0 std::__make_move_if_noexcept_iterator<google_breakpad::MappingInfo**, std::move_iterator<google_breakpad::MappingInfo**> >
FUNC 5790a 97 0 std::vector<google_breakpad::MappingInfo*, google_breakpad::PageStdAllocator<google_breakpad::MappingInfo*> >::_M_allocate_and_copy<std::move_iterator<google_breakpad::MappingInfo**> >
FUNC 579a2 35 0 std::_Vector_base<google_breakpad::MappingInfo*, google_breakpad::PageStdAllocator<google_breakpad::MappingInfo*> >::_M_deallocate
FUNC 579d7 e 0 std::__addressof<google_breakpad::MappingInfo*>
FUNC 579e5 26 0 std::allocator_traits<google_breakpad::PageStdAllocator<google_breakpad::MappingInfo*> >::destroy<google_breakpad::MappingInfo*>
FUNC 57a0c 1b 0 std::allocator<long unsigned int>::allocator
FUNC 57a28 b 0 __gnu_cxx::new_allocator<long unsigned int>::~new_allocator
FUNC 57a34 26 0 std::_Vector_base<long unsigned int, google_breakpad::PageStdAllocator<long unsigned int> >::_Vector_base
FUNC 57a5a 22 0 std::vector<long unsigned int, google_breakpad::PageStdAllocator<long unsigned int> >::max_size
FUNC 57a7c 27 0 std::vector<long unsigned int, google_breakpad::PageStdAllocator<long unsigned int> >::capacity
FUNC 57aa3 25 0 std::__make_move_if_noexcept_iterator<long unsigned int*, std::move_iterator<long unsigned int*> >
FUNC 57ac8 97 0 std::vector<long unsigned int, google_breakpad::PageStdAllocator<long unsigned int> >::_M_allocate_and_copy<std::move_iterator<long unsigned int*> >
FUNC 57b60 35 0 std::_Vector_base<long unsigned int, google_breakpad::PageStdAllocator<long unsigned int> >::_M_deallocate
FUNC 57b95 e 0 std::__addressof<long unsigned int>
FUNC 57ba3 26 0 std::allocator_traits<google_breakpad::PageStdAllocator<long unsigned int> >::destroy<long unsigned int>
FUNC 57bc9 92 0 std::__uninitialized_default_n_a<long unsigned int*, long unsigned int, google_breakpad::PageStdAllocator<long unsigned int> >
FUNC 57c5c c9 0 std::vector<long unsigned int, google_breakpad::PageStdAllocator<long unsigned int> >::_M_check_len
FUNC 57d26 33 0 std::_Vector_base<long unsigned int, google_breakpad::PageStdAllocator<long unsigned int> >::_M_allocate
FUNC 57d59 54 0 std::__uninitialized_move_if_noexcept_a<long unsigned int*, long unsigned int*, google_breakpad::PageStdAllocator<long unsigned int> >
FUNC 57dae 1d 0 __gnu_cxx::__normal_iterator<google_breakpad::MappingInfo* const*, std::vector<google_breakpad::MappingInfo*, google_breakpad::PageStdAllocator<google_breakpad::MappingInfo*> > >::__normal_iterator
FUNC 57dcc e 0 __gnu_cxx::__normal_iterator<google_breakpad::MappingInfo* const*, std::vector<google_breakpad::MappingInfo*, google_breakpad::PageStdAllocator<google_breakpad::MappingInfo*> > >::base
FUNC 57dda 1d 0 __gnu_cxx::__normal_iterator<google_breakpad::MappingInfo**, std::vector<google_breakpad::MappingInfo*, google_breakpad::PageStdAllocator<google_breakpad::MappingInfo*> > >::__normal_iterator
FUNC 57df7 92 0 std::__uninitialized_default_n_a<google_breakpad::MappingInfo**, long unsigned int, google_breakpad::PageStdAllocator<google_breakpad::MappingInfo*> >
FUNC 57e8a c9 0 std::vector<google_breakpad::MappingInfo*, google_breakpad::PageStdAllocator<google_breakpad::MappingInfo*> >::_M_check_len
FUNC 57f54 33 0 std::_Vector_base<google_breakpad::MappingInfo*, google_breakpad::PageStdAllocator<google_breakpad::MappingInfo*> >::_M_allocate
FUNC 57f87 54 0 std::__uninitialized_move_if_noexcept_a<google_breakpad::MappingInfo**, google_breakpad::MappingInfo**, google_breakpad::PageStdAllocator<google_breakpad::MappingInfo*> >
FUNC 57fdb 39 0 std::allocator_traits<google_breakpad::PageStdAllocator<google_breakpad::MappingInfo*> >::_S_construct<google_breakpad::MappingInfo*, google_breakpad::MappingInfo* const&>
FUNC 58014 54 0 google_breakpad::PageStdAllocator<int>::PageStdAllocator
FUNC 58068 4a 0 std::_Vector_base<int, google_breakpad::PageStdAllocator<int> >::_Vector_impl::_Vector_impl
FUNC 580b2 1f 0 std::allocator_traits<google_breakpad::PageStdAllocator<int> >::max_size
FUNC 580d2 e 0 std::_Vector_base<int, google_breakpad::PageStdAllocator<int> >::_M_get_Tp_allocator
FUNC 580e0 33 0 std::_Vector_base<int, google_breakpad::PageStdAllocator<int> >::_M_allocate
FUNC 58113 bf 0 std::__uninitialized_copy_a<std::move_iterator<int*>, int*, google_breakpad::PageStdAllocator<int> >
FUNC 581d2 2e 0 std::allocator_traits<google_breakpad::PageStdAllocator<int> >::deallocate
FUNC 58200 26 0 std::allocator_traits<google_breakpad::PageStdAllocator<int> >::_S_destroy<int>
FUNC 58226 b 0 __gnu_cxx::new_allocator<google_breakpad::MappingInfo*>::new_allocator
FUNC 58232 54 0 google_breakpad::PageStdAllocator<google_breakpad::MappingInfo*>::PageStdAllocator
FUNC 58286 4a 0 std::_Vector_base<google_breakpad::MappingInfo*, google_breakpad::PageStdAllocator<google_breakpad::MappingInfo*> >::_Vector_impl::_Vector_impl
FUNC 582d0 1f 0 std::allocator_traits<google_breakpad::PageStdAllocator<google_breakpad::MappingInfo*> >::max_size
FUNC 582f0 e 0 std::_Vector_base<google_breakpad::MappingInfo*, google_breakpad::PageStdAllocator<google_breakpad::MappingInfo*> >::_M_get_Tp_allocator
FUNC 582fe 1a 0 std::move_iterator<google_breakpad::MappingInfo**>::move_iterator
FUNC 58318 bf 0 std::__uninitialized_copy_a<std::move_iterator<google_breakpad::MappingInfo**>, google_breakpad::MappingInfo**, google_breakpad::PageStdAllocator<google_breakpad::MappingInfo*> >
FUNC 583d7 2e 0 std::allocator_traits<google_breakpad::PageStdAllocator<google_breakpad::MappingInfo*> >::deallocate
FUNC 58405 26 0 std::allocator_traits<google_breakpad::PageStdAllocator<google_breakpad::MappingInfo*> >::_S_destroy<google_breakpad::MappingInfo*>
FUNC 5842c b 0 __gnu_cxx::new_allocator<long unsigned int>::new_allocator
FUNC 58438 54 0 google_breakpad::PageStdAllocator<long unsigned int>::PageStdAllocator
FUNC 5848c 4a 0 std::_Vector_base<long unsigned int, google_breakpad::PageStdAllocator<long unsigned int> >::_Vector_impl::_Vector_impl
FUNC 584d6 1f 0 std::allocator_traits<google_breakpad::PageStdAllocator<long unsigned int> >::max_size
FUNC 584f6 e 0 std::_Vector_base<long unsigned int, google_breakpad::PageStdAllocator<long unsigned int> >::_M_get_Tp_allocator
FUNC 58504 1a 0 std::move_iterator<long unsigned int*>::move_iterator
FUNC 5851e bf 0 std::__uninitialized_copy_a<std::move_iterator<long unsigned int*>, long unsigned int*, google_breakpad::PageStdAllocator<long unsigned int> >
FUNC 585dd 2e 0 std::allocator_traits<google_breakpad::PageStdAllocator<long unsigned int> >::deallocate
FUNC 5860b 26 0 std::allocator_traits<google_breakpad::PageStdAllocator<long unsigned int> >::_S_destroy<long unsigned int>
FUNC 58631 26 0 std::allocator_traits<google_breakpad::PageStdAllocator<long unsigned int> >::construct<long unsigned int>
FUNC 58657 2a 0 std::allocator_traits<google_breakpad::PageStdAllocator<long unsigned int> >::allocate
FUNC 58681 26 0 std::allocator_traits<google_breakpad::PageStdAllocator<google_breakpad::MappingInfo*> >::construct<google_breakpad::MappingInfo*>
FUNC 586a7 2a 0 std::allocator_traits<google_breakpad::PageStdAllocator<google_breakpad::MappingInfo*> >::allocate
FUNC 586d2 45 0 __gnu_cxx::new_allocator<google_breakpad::MappingInfo*>::construct<google_breakpad::MappingInfo*, google_breakpad::MappingInfo* const&>
FUNC 58718 26 0 std::allocator<int>::allocator
FUNC 5873e 1d 0 std::allocator_traits<google_breakpad::PageStdAllocator<int> >::_S_max_size<const google_breakpad::PageStdAllocator<int>, void>
FUNC 5875b 2a 0 std::allocator_traits<google_breakpad::PageStdAllocator<int> >::allocate
FUNC 58785 28 0 std::operator!=<int*>
FUNC 587ae 20 0 std::move_iterator<int*>::operator++
FUNC 587ce 11 0 std::move_iterator<int*>::operator*
FUNC 587df 39 0 std::allocator_traits<google_breakpad::PageStdAllocator<int> >::construct<int, int>
FUNC 58818 13 0 google_breakpad::PageStdAllocator<int>::deallocate
FUNC 5882c 26 0 std::allocator<google_breakpad::MappingInfo*>::allocator
FUNC 58852 1d 0 std::allocator_traits<google_breakpad::PageStdAllocator<google_breakpad::MappingInfo*> >::_S_max_size<const google_breakpad::PageStdAllocator<google_breakpad::MappingInfo*>, void>
FUNC 5886f 28 0 std::operator!=<google_breakpad::MappingInfo**>
FUNC 58898 20 0 std::move_iterator<google_breakpad::MappingInfo**>::operator++
FUNC 588b8 11 0 std::move_iterator<google_breakpad::MappingInfo**>::operator*
FUNC 588c9 e 0 std::forward<google_breakpad::MappingInfo*>
FUNC 588d7 39 0 std::allocator_traits<google_breakpad::PageStdAllocator<google_breakpad::MappingInfo*> >::construct<google_breakpad::MappingInfo*, google_breakpad::MappingInfo*>
FUNC 58910 13 0 google_breakpad::PageStdAllocator<google_breakpad::MappingInfo*>::deallocate
FUNC 58924 f 0 __gnu_cxx::new_allocator<google_breakpad::MappingInfo*>::destroy<google_breakpad::MappingInfo*>
FUNC 58934 26 0 std::allocator<long unsigned int>::allocator
FUNC 5895a 1d 0 std::allocator_traits<google_breakpad::PageStdAllocator<long unsigned int> >::_S_max_size<const google_breakpad::PageStdAllocator<long unsigned int>, void>
FUNC 58977 28 0 std::operator!=<long unsigned int*>
FUNC 589a0 20 0 std::move_iterator<long unsigned int*>::operator++
FUNC 589c0 11 0 std::move_iterator<long unsigned int*>::operator*
FUNC 589d1 e 0 std::forward<long unsigned int>
FUNC 589df 39 0 std::allocator_traits<google_breakpad::PageStdAllocator<long unsigned int> >::construct<long unsigned int, long unsigned int>
FUNC 58a18 13 0 google_breakpad::PageStdAllocator<long unsigned int>::deallocate
FUNC 58a2c f 0 __gnu_cxx::new_allocator<long unsigned int>::destroy<long unsigned int>
FUNC 58a3b 26 0 std::allocator_traits<google_breakpad::PageStdAllocator<long unsigned int> >::_S_construct<long unsigned int>
FUNC 58a62 50 0 google_breakpad::PageStdAllocator<long unsigned int>::allocate
FUNC 58ab2 26 0 std::allocator_traits<google_breakpad::PageStdAllocator<google_breakpad::MappingInfo*> >::_S_construct<google_breakpad::MappingInfo*>
FUNC 58ad8 50 0 google_breakpad::PageStdAllocator<google_breakpad::MappingInfo*>::allocate
FUNC 58b28 f 0 __gnu_cxx::new_allocator<int>::new_allocator
FUNC 58b38 50 0 google_breakpad::PageStdAllocator<int>::allocate
FUNC 58b88 39 0 std::operator==<int*>
FUNC 58bc1 39 0 std::allocator_traits<google_breakpad::PageStdAllocator<int> >::_S_construct<int, int>
FUNC 58bfa f 0 __gnu_cxx::new_allocator<google_breakpad::MappingInfo*>::new_allocator
FUNC 58c0a 14 0 __gnu_cxx::new_allocator<google_breakpad::MappingInfo*>::max_size
FUNC 58c1e 39 0 std::operator==<google_breakpad::MappingInfo**>
FUNC 58c57 39 0 std::allocator_traits<google_breakpad::PageStdAllocator<google_breakpad::MappingInfo*> >::_S_construct<google_breakpad::MappingInfo*, google_breakpad::MappingInfo*>
FUNC 58c90 f 0 __gnu_cxx::new_allocator<long unsigned int>::new_allocator
FUNC 58ca0 14 0 __gnu_cxx::new_allocator<long unsigned int>::max_size
FUNC 58cb4 39 0 std::operator==<long unsigned int*>
FUNC 58ced 39 0 std::allocator_traits<google_breakpad::PageStdAllocator<long unsigned int> >::_S_construct<long unsigned int, long unsigned int>
FUNC 58d26 30 0 __gnu_cxx::new_allocator<long unsigned int>::construct<long unsigned int>
FUNC 58d56 30 0 __gnu_cxx::new_allocator<google_breakpad::MappingInfo*>::construct<google_breakpad::MappingInfo*>
FUNC 58d86 11 0 std::move_iterator<google_breakpad::MappingInfo**>::base
FUNC 58d98 45 0 __gnu_cxx::new_allocator<google_breakpad::MappingInfo*>::construct<google_breakpad::MappingInfo*, google_breakpad::MappingInfo*>
FUNC 58dde 11 0 std::move_iterator<long unsigned int*>::base
FUNC 58df0 45 0 __gnu_cxx::new_allocator<long unsigned int>::construct<long unsigned int, long unsigned int>
FUNC 58e36 49 0 sys_close
FUNC 58e7f 57 0 sys_getdents
FUNC 58ed6 57 0 sys_open
FUNC 58f2d 62 0 sys_ptrace
FUNC 58f8f 56 0 sys_read
FUNC 58fe5 88 0 sys_mmap
FUNC 5906d 62 0 sys_wait4
FUNC 590cf 2a 0 sys_waitpid
FUNC 590f9 119 0 SuspendThread
FUNC 59212 2d 0 ResumeThread
FUNC 59240 47 0 google_breakpad::LinuxPtraceDumper::LinuxPtraceDumper
FUNC 59288 106 0 google_breakpad::LinuxPtraceDumper::BuildProcPath
FUNC 5938e c9 0 google_breakpad::LinuxPtraceDumper::CopyFromProcess
FUNC 59458 392 0 google_breakpad::LinuxPtraceDumper::GetThreadInfoByIndex
FUNC 597ea f 0 google_breakpad::LinuxPtraceDumper::IsPostMortem
FUNC 597fa 15c 0 google_breakpad::LinuxPtraceDumper::ThreadsSuspend
FUNC 59956 95 0 google_breakpad::LinuxPtraceDumper::ThreadsResume
FUNC 599ec 1a9 0 google_breakpad::LinuxPtraceDumper::EnumerateThreads
FUNC 59b96 22 0 google_breakpad::DirectoryReader::DirectoryReader
FUNC 59bb8 d1 0 google_breakpad::DirectoryReader::GetNextEntry
FUNC 59c8a 79 0 google_breakpad::DirectoryReader::PopEntry
FUNC 59d04 21 0 std::vector<int, google_breakpad::PageStdAllocator<int> >::operator[]
FUNC 59d26 8d 0 std::vector<int, google_breakpad::PageStdAllocator<int> >::resize
FUNC 59db4 6c 0 std::vector<int, google_breakpad::PageStdAllocator<int> >::push_back
FUNC 59e20 20e 0 std::vector<int, google_breakpad::PageStdAllocator<int> >::_M_default_append
FUNC 5a02e 45 0 std::vector<int, google_breakpad::PageStdAllocator<int> >::_M_erase_at_end
FUNC 5a073 e 0 std::forward<int const&>
FUNC 5a081 39 0 std::allocator_traits<google_breakpad::PageStdAllocator<int> >::construct<int, int const&>
FUNC 5a0ba 1f1 0 std::vector<int, google_breakpad::PageStdAllocator<int> >::_M_emplace_back_aux<int const&>
FUNC 5a2ab 92 0 std::__uninitialized_default_n_a<int*, long unsigned int, google_breakpad::PageStdAllocator<int> >
FUNC 5a33e c9 0 std::vector<int, google_breakpad::PageStdAllocator<int> >::_M_check_len
FUNC 5a407 54 0 std::__uninitialized_move_if_noexcept_a<int*, int*, google_breakpad::PageStdAllocator<int> >
FUNC 5a45b 39 0 std::allocator_traits<google_breakpad::PageStdAllocator<int> >::_S_construct<int, int const&>
FUNC 5a494 26 0 std::allocator_traits<google_breakpad::PageStdAllocator<int> >::construct<int>
FUNC 5a4ba 43 0 __gnu_cxx::new_allocator<int>::construct<int, int const&>
FUNC 5a4fd 26 0 std::allocator_traits<google_breakpad::PageStdAllocator<int> >::_S_construct<int>
FUNC 5a524 2f 0 __gnu_cxx::new_allocator<int>::construct<int>
FUNC 5a554 49 0 sys_close
FUNC 5a59d 50 0 sys_munmap
FUNC 5a5ed 57 0 sys_open
FUNC 5a644 56 0 sys_read
FUNC 5a69a 88 0 sys_mmap
FUNC 5a722 170 0 MinidumpWriter::MinidumpWriter
FUNC 5a892 df 0 MinidumpWriter::Init
FUNC 5a972 69 0 MinidumpWriter::~MinidumpWriter
FUNC 5a9dc 68a 0 MinidumpWriter::Dump
FUNC 5b066 191 0 MinidumpWriter::FillThreadStack
FUNC 5b1f8 803 0 MinidumpWriter::WriteThreadListStream
FUNC 5b9fc 1ab 0 MinidumpWriter::WriteAppMemory
FUNC 5bba7 4e 0 MinidumpWriter::ShouldIncludeMapping
FUNC 5bbf6 e3 0 MinidumpWriter::HaveMappingInfo
FUNC 5bcda 38c 0 MinidumpWriter::WriteMappings
FUNC 5c066 2e1 0 MinidumpWriter::FillRawModule
FUNC 5c348 167 0 MinidumpWriter::WriteMemoryListStream
FUNC 5c4b0 176 0 MinidumpWriter::WriteExceptionStream
FUNC 5c626 f0 0 MinidumpWriter::WriteSystemInfoStream
FUNC 5c716 7bd 0 MinidumpWriter::WriteDSODebugStream
FUNC 5ced4 1b 0 MinidumpWriter::set_minidump_size_limit
FUNC 5cef0 35 0 MinidumpWriter::Alloc
FUNC 5cf26 1e 0 MinidumpWriter::GetCrashThread
FUNC 5cf44 2f 0 MinidumpWriter::NullifyDirectoryEntry
FUNC 5cf74 3ae 0 MinidumpWriter::WriteCPUInformation
FUNC 5d322 240 0 MinidumpWriter::WriteFile
FUNC 5d562 1fc 0 MinidumpWriter::WriteOSInformation
FUNC 5d75e 8c 0 MinidumpWriter::WriteProcFile
FUNC 5d7ea 1a9 0 WriteMinidumpImpl
FUNC 5d993 b3 0 google_breakpad::WriteMinidump
FUNC 5da46 b0 0 google_breakpad::WriteMinidump
FUNC 5daf6 16e 0 google_breakpad::WriteMinidump
FUNC 5dc64 56 0 google_breakpad::WriteMinidump
FUNC 5dcba 53 0 google_breakpad::WriteMinidump
FUNC 5dd0d 51 0 google_breakpad::WriteMinidump
FUNC 5dd5e 4e 0 google_breakpad::WriteMinidump
FUNC 5ddac ce 0 google_breakpad::WriteMinidump
FUNC 5de7a 14 0 google_breakpad::LinuxDumper::auxv
FUNC 5de8e 12 0 google_breakpad::LinuxDumper::crash_address
FUNC 5dea0 11 0 google_breakpad::LinuxDumper::crash_signal
FUNC 5deb2 11 0 google_breakpad::MinidumpFileWriter::position
FUNC 5dec4 3f 0 google_breakpad::UntypedMDRVA::UntypedMDRVA
FUNC 5df04 11 0 google_breakpad::UntypedMDRVA::position
FUNC 5df16 23 0 google_breakpad::UntypedMDRVA::location
FUNC 5df3a 31 0 google_breakpad::UntypedMDRVA::Copy
FUNC 5df6c 31 0 google_breakpad::ProcCpuInfoReader::ProcCpuInfoReader
FUNC 5df9e 18a 0 google_breakpad::ProcCpuInfoReader::GetNextField
FUNC 5e128 5e 0 google_breakpad::ProcCpuInfoReader::GetValueAndLen
FUNC 5e186 1b 0 google_breakpad::wasteful_vector<MDMemoryDescriptor>::~wasteful_vector
FUNC 5e1a2 1b 0 google_breakpad::wasteful_vector<char>::~wasteful_vector
FUNC 5e1be 1b 0 google_breakpad::PageStdAllocator<MDMemoryDescriptor>::~PageStdAllocator
FUNC 5e1da 7b 0 google_breakpad::wasteful_vector<MDMemoryDescriptor>::wasteful_vector
FUNC 5e256 45 0 std::vector<MDMemoryDescriptor, google_breakpad::PageStdAllocator<MDMemoryDescriptor> >::~vector
FUNC 5e29c 52 0 google_breakpad::TypedMDRVA<MDRawDirectory>::TypedMDRVA
FUNC 5e2ee 27 0 google_breakpad::TypedMDRVA<MDRawDirectory>::~TypedMDRVA
FUNC 5e316 55 0 google_breakpad::TypedMDRVA<MDRawHeader>::TypedMDRVA
FUNC 5e36c 27 0 google_breakpad::TypedMDRVA<MDRawHeader>::~TypedMDRVA
FUNC 5e394 30 0 google_breakpad::TypedMDRVA<MDRawHeader>::Allocate
FUNC 5e3c4 5f 0 google_breakpad::TypedMDRVA<MDRawDirectory>::AllocateArray
FUNC 5e424 12 0 google_breakpad::TypedMDRVA<MDRawHeader>::get
FUNC 5e436 7b 0 google_breakpad::TypedMDRVA<MDRawDirectory>::CopyIndex
FUNC 5e4b2 6c 0 std::vector<MDMemoryDescriptor, google_breakpad::PageStdAllocator<MDMemoryDescriptor> >::push_back
FUNC 5e51e 3c 0 google_breakpad::TypedMDRVA<unsigned int>::TypedMDRVA
FUNC 5e55a 27 0 google_breakpad::TypedMDRVA<unsigned int>::~TypedMDRVA
FUNC 5e582 71 0 google_breakpad::TypedMDRVA<unsigned int>::AllocateObjectAndArray
FUNC 5e5f4 12 0 google_breakpad::TypedMDRVA<unsigned int>::get
FUNC 5e606 4c 0 google_breakpad::TypedMDRVA<MDRawContextAMD64>::TypedMDRVA
FUNC 5e652 2a 0 google_breakpad::TypedMDRVA<MDRawContextAMD64>::~TypedMDRVA
FUNC 5e67c 33 0 google_breakpad::TypedMDRVA<MDRawContextAMD64>::Allocate
FUNC 5e6b0 12 0 google_breakpad::TypedMDRVA<MDRawContextAMD64>::get
FUNC 5e6c2 84 0 google_breakpad::TypedMDRVA<unsigned int>::CopyIndexAfterObject
FUNC 5e746 28 0 std::__cxx11::list<google_breakpad::AppMemory, std::allocator<google_breakpad::AppMemory> >::begin
FUNC 5e76e 25 0 std::__cxx11::list<google_breakpad::AppMemory, std::allocator<google_breakpad::AppMemory> >::end
FUNC 5e794 22 0 std::_List_const_iterator<google_breakpad::AppMemory>::operator!=
FUNC 5e7b6 1f 0 std::_List_const_iterator<google_breakpad::AppMemory>::operator++
FUNC 5e7d6 21 0 std::_List_const_iterator<google_breakpad::AppMemory>::operator->
FUNC 5e7f8 1a 0 std::__cxx11::list<google_breakpad::MappingEntry, std::allocator<google_breakpad::MappingEntry> >::size
FUNC 5e812 30 0 google_breakpad::TypedMDRVA<unsigned int>::Allocate
FUNC 5e842 41 0 std::vector<unsigned char, google_breakpad::PageStdAllocator<unsigned char> >::empty
FUNC 5e884 27 0 std::vector<MDMemoryDescriptor, google_breakpad::PageStdAllocator<MDMemoryDescriptor> >::size
FUNC 5e8ac 21 0 std::vector<MDMemoryDescriptor, google_breakpad::PageStdAllocator<MDMemoryDescriptor> >::operator[]
FUNC 5e8ce 4c 0 google_breakpad::TypedMDRVA<MDRawExceptionStream>::TypedMDRVA
FUNC 5e91a 2a 0 google_breakpad::TypedMDRVA<MDRawExceptionStream>::~TypedMDRVA
FUNC 5e944 33 0 google_breakpad::TypedMDRVA<MDRawExceptionStream>::Allocate
FUNC 5e978 12 0 google_breakpad::TypedMDRVA<MDRawExceptionStream>::get
FUNC 5e98a 49 0 google_breakpad::TypedMDRVA<MDRawSystemInfo>::TypedMDRVA
FUNC 5e9d4 27 0 google_breakpad::TypedMDRVA<MDRawSystemInfo>::~TypedMDRVA
FUNC 5e9fc 30 0 google_breakpad::TypedMDRVA<MDRawSystemInfo>::Allocate
FUNC 5ea2c 12 0 google_breakpad::TypedMDRVA<MDRawSystemInfo>::get
FUNC 5ea3e 21 0 std::vector<long unsigned int, google_breakpad::PageStdAllocator<long unsigned int> >::operator[]
FUNC 5ea60 54 0 google_breakpad::TypedMDRVA<MDRawLinkMap64>::TypedMDRVA
FUNC 5eab4 27 0 google_breakpad::TypedMDRVA<MDRawLinkMap64>::~TypedMDRVA
FUNC 5eadc 5f 0 google_breakpad::TypedMDRVA<MDRawLinkMap64>::AllocateArray
FUNC 5eb3c 7b 0 google_breakpad::TypedMDRVA<MDRawLinkMap64>::CopyIndex
FUNC 5ebb8 76 0 google_breakpad::TypedMDRVA<MDRawDebug64>::TypedMDRVA
FUNC 5ec2e 27 0 google_breakpad::TypedMDRVA<MDRawDebug64>::~TypedMDRVA
FUNC 5ec56 71 0 google_breakpad::TypedMDRVA<MDRawDebug64>::AllocateObjectAndArray
FUNC 5ecc8 12 0 google_breakpad::TypedMDRVA<MDRawDebug64>::get
FUNC 5ecda 1b 0 google_breakpad::PageStdAllocator<char>::~PageStdAllocator
FUNC 5ecf6 7b 0 google_breakpad::wasteful_vector<char>::wasteful_vector
FUNC 5ed72 45 0 std::vector<char, google_breakpad::PageStdAllocator<char> >::~vector
FUNC 5edb8 89 0 std::vector<char, google_breakpad::PageStdAllocator<char> >::resize
FUNC 5ee42 1d 0 std::vector<char, google_breakpad::PageStdAllocator<char> >::operator[]
FUNC 5ee60 84 0 google_breakpad::TypedMDRVA<MDRawDebug64>::CopyIndexAfterObject
FUNC 5eee4 42 0 google_breakpad::PageStdAllocator<MDMemoryDescriptor>::PageStdAllocator
FUNC 5ef26 1b 0 std::allocator<MDMemoryDescriptor>::~allocator
FUNC 5ef42 26 0 std::vector<MDMemoryDescriptor, google_breakpad::PageStdAllocator<MDMemoryDescriptor> >::vector
FUNC 5ef68 146 0 std::vector<MDMemoryDescriptor, google_breakpad::PageStdAllocator<MDMemoryDescriptor> >::reserve
FUNC 5f0ae 1b 0 std::_Vector_base<MDMemoryDescriptor, google_breakpad::PageStdAllocator<MDMemoryDescriptor> >::_Vector_impl::~_Vector_impl
FUNC 5f0ca 52 0 std::_Vector_base<MDMemoryDescriptor, google_breakpad::PageStdAllocator<MDMemoryDescriptor> >::~_Vector_base
FUNC 5f11c e 0 std::_Vector_base<MDMemoryDescriptor, google_breakpad::PageStdAllocator<MDMemoryDescriptor> >::_M_get_Tp_allocator
FUNC 5f12a 46 0 std::_Destroy<MDMemoryDescriptor*, google_breakpad::PageStdAllocator<MDMemoryDescriptor> >
FUNC 5f170 34 0 google_breakpad::TypedMDRVA<MDRawDirectory>::Flush
FUNC 5f1a4 34 0 google_breakpad::TypedMDRVA<MDRawHeader>::Flush
FUNC 5f1d8 b 0 google_breakpad::minidump_size<MDRawHeader>::size
FUNC 5f1e3 b 0 google_breakpad::minidump_size<MDRawDirectory>::size
FUNC 5f1ee e 0 std::forward<const MDMemoryDescriptor&>
FUNC 5f1fc 39 0 std::allocator_traits<google_breakpad::PageStdAllocator<MDMemoryDescriptor> >::construct<MDMemoryDescriptor, const MDMemoryDescriptor&>
FUNC 5f236 1ee 0 std::vector<MDMemoryDescriptor, google_breakpad::PageStdAllocator<MDMemoryDescriptor> >::_M_emplace_back_aux<const MDMemoryDescriptor&>
FUNC 5f424 34 0 google_breakpad::TypedMDRVA<unsigned int>::Flush
FUNC 5f458 b 0 google_breakpad::minidump_size<unsigned int>::size
FUNC 5f464 34 0 google_breakpad::TypedMDRVA<MDRawContextAMD64>::Flush
FUNC 5f498 b 0 google_breakpad::minidump_size<MDRawContextAMD64>::size
FUNC 5f4a4 1a 0 std::_List_const_iterator<google_breakpad::AppMemory>::_List_const_iterator
FUNC 5f4be e 0 std::__addressof<const google_breakpad::AppMemory>
FUNC 5f4cc 12 0 std::__cxx11::_List_base<google_breakpad::MappingEntry, std::allocator<google_breakpad::MappingEntry> >::_M_node_count
FUNC 5f4de 31 0 std::vector<unsigned char, google_breakpad::PageStdAllocator<unsigned char> >::begin
FUNC 5f510 31 0 std::vector<unsigned char, google_breakpad::PageStdAllocator<unsigned char> >::end
FUNC 5f541 3c 0 __gnu_cxx::operator==<unsigned char const*, std::vector<unsigned char, google_breakpad::PageStdAllocator<unsigned char> > >
FUNC 5f57e 34 0 google_breakpad::TypedMDRVA<MDRawExceptionStream>::Flush
FUNC 5f5b2 b 0 google_breakpad::minidump_size<MDRawExceptionStream>::size
FUNC 5f5be 34 0 google_breakpad::TypedMDRVA<MDRawSystemInfo>::Flush
FUNC 5f5f2 b 0 google_breakpad::minidump_size<MDRawSystemInfo>::size
FUNC 5f5fe 34 0 google_breakpad::TypedMDRVA<MDRawLinkMap64>::Flush
FUNC 5f632 b 0 google_breakpad::minidump_size<MDRawLinkMap64>::size
FUNC 5f63e 34 0 google_breakpad::TypedMDRVA<MDRawDebug64>::Flush
FUNC 5f672 b 0 google_breakpad::minidump_size<MDRawDebug64>::size
FUNC 5f67e 42 0 google_breakpad::PageStdAllocator<char>::PageStdAllocator
FUNC 5f6c0 26 0 std::vector<char, google_breakpad::PageStdAllocator<char> >::vector
FUNC 5f6e6 137 0 std::vector<char, google_breakpad::PageStdAllocator<char> >::reserve
FUNC 5f81e 1b 0 std::_Vector_base<char, google_breakpad::PageStdAllocator<char> >::_Vector_impl::~_Vector_impl
FUNC 5f83a 4e 0 std::_Vector_base<char, google_breakpad::PageStdAllocator<char> >::~_Vector_base
FUNC 5f888 e 0 std::_Vector_base<char, google_breakpad::PageStdAllocator<char> >::_M_get_Tp_allocator
FUNC 5f896 46 0 std::_Destroy<char*, google_breakpad::PageStdAllocator<char> >
FUNC 5f8dc 23 0 std::vector<char, google_breakpad::PageStdAllocator<char> >::size
FUNC 5f900 1fe 0 std::vector<char, google_breakpad::PageStdAllocator<char> >::_M_default_append
FUNC 5fafe 45 0 std::vector<char, google_breakpad::PageStdAllocator<char> >::_M_erase_at_end
FUNC 5fb44 1b 0 std::allocator<MDMemoryDescriptor>::allocator
FUNC 5fb60 b 0 __gnu_cxx::new_allocator<MDMemoryDescriptor>::~new_allocator
FUNC 5fb6c 26 0 std::_Vector_base<MDMemoryDescriptor, google_breakpad::PageStdAllocator<MDMemoryDescriptor> >::_Vector_base
FUNC 5fb92 22 0 std::vector<MDMemoryDescriptor, google_breakpad::PageStdAllocator<MDMemoryDescriptor> >::max_size
FUNC 5fbb4 27 0 std::vector<MDMemoryDescriptor, google_breakpad::PageStdAllocator<MDMemoryDescriptor> >::capacity
FUNC 5fbdb 25 0 std::__make_move_if_noexcept_iterator<MDMemoryDescriptor*, std::move_iterator<MDMemoryDescriptor*> >
FUNC 5fc00 97 0 std::vector<MDMemoryDescriptor, google_breakpad::PageStdAllocator<MDMemoryDescriptor> >::_M_allocate_and_copy<std::move_iterator<MDMemoryDescriptor*> >
FUNC 5fc98 35 0 std::_Vector_base<MDMemoryDescriptor, google_breakpad::PageStdAllocator<MDMemoryDescriptor> >::_M_deallocate
FUNC 5fccd e 0 std::__addressof<MDMemoryDescriptor>
FUNC 5fcdb 26 0 std::allocator_traits<google_breakpad::PageStdAllocator<MDMemoryDescriptor> >::destroy<MDMemoryDescriptor>
FUNC 5fd01 39 0 std::allocator_traits<google_breakpad::PageStdAllocator<MDMemoryDescriptor> >::_S_construct<MDMemoryDescriptor, const MDMemoryDescriptor&>
FUNC 5fd3a c9 0 std::vector<MDMemoryDescriptor, google_breakpad::PageStdAllocator<MDMemoryDescriptor> >::_M_check_len
FUNC 5fe04 33 0 std::_Vector_base<MDMemoryDescriptor, google_breakpad::PageStdAllocator<MDMemoryDescriptor> >::_M_allocate
FUNC 5fe37 54 0 std::__uninitialized_move_if_noexcept_a<MDMemoryDescriptor*, MDMemoryDescriptor*, google_breakpad::PageStdAllocator<MDMemoryDescriptor> >
FUNC 5fe8c 26 0 std::_Vector_base<char, google_breakpad::PageStdAllocator<char> >::_Vector_base
FUNC 5feb2 22 0 std::vector<char, google_breakpad::PageStdAllocator<char> >::max_size
FUNC 5fed4 23 0 std::vector<char, google_breakpad::PageStdAllocator<char> >::capacity
FUNC 5fef7 25 0 std::__make_move_if_noexcept_iterator<char*, std::move_iterator<char*> >
FUNC 5ff1c 97 0 std::vector<char, google_breakpad::PageStdAllocator<char> >::_M_allocate_and_copy<std::move_iterator<char*> >
FUNC 5ffb4 35 0 std::_Vector_base<char, google_breakpad::PageStdAllocator<char> >::_M_deallocate
FUNC 5ffe9 e 0 std::__addressof<char>
FUNC 5fff7 26 0 std::allocator_traits<google_breakpad::PageStdAllocator<char> >::destroy<char>
FUNC 6001d 92 0 std::__uninitialized_default_n_a<char*, long unsigned int, google_breakpad::PageStdAllocator<char> >
FUNC 600b0 c9 0 std::vector<char, google_breakpad::PageStdAllocator<char> >::_M_check_len
FUNC 6017a 33 0 std::_Vector_base<char, google_breakpad::PageStdAllocator<char> >::_M_allocate
FUNC 601ad 54 0 std::__uninitialized_move_if_noexcept_a<char*, char*, google_breakpad::PageStdAllocator<char> >
FUNC 60202 b 0 __gnu_cxx::new_allocator<MDMemoryDescriptor>::new_allocator
FUNC 6020e 54 0 google_breakpad::PageStdAllocator<MDMemoryDescriptor>::PageStdAllocator
FUNC 60262 4a 0 std::_Vector_base<MDMemoryDescriptor, google_breakpad::PageStdAllocator<MDMemoryDescriptor> >::_Vector_impl::_Vector_impl
FUNC 602ac 1f 0 std::allocator_traits<google_breakpad::PageStdAllocator<MDMemoryDescriptor> >::max_size
FUNC 602cc e 0 std::_Vector_base<MDMemoryDescriptor, google_breakpad::PageStdAllocator<MDMemoryDescriptor> >::_M_get_Tp_allocator
FUNC 602da 1a 0 std::move_iterator<MDMemoryDescriptor*>::move_iterator
FUNC 602f4 bf 0 std::__uninitialized_copy_a<std::move_iterator<MDMemoryDescriptor*>, MDMemoryDescriptor*, google_breakpad::PageStdAllocator<MDMemoryDescriptor> >
FUNC 603b3 2e 0 std::allocator_traits<google_breakpad::PageStdAllocator<MDMemoryDescriptor> >::deallocate
FUNC 603e1 26 0 std::allocator_traits<google_breakpad::PageStdAllocator<MDMemoryDescriptor> >::_S_destroy<MDMemoryDescriptor>
FUNC 60408 53 0 __gnu_cxx::new_allocator<MDMemoryDescriptor>::construct<MDMemoryDescriptor, const MDMemoryDescriptor&>
FUNC 6045b 2a 0 std::allocator_traits<google_breakpad::PageStdAllocator<MDMemoryDescriptor> >::allocate
FUNC 60486 54 0 google_breakpad::PageStdAllocator<char>::PageStdAllocator
FUNC 604da 4a 0 std::_Vector_base<char, google_breakpad::PageStdAllocator<char> >::_Vector_impl::_Vector_impl
FUNC 60524 1f 0 std::allocator_traits<google_breakpad::PageStdAllocator<char> >::max_size
FUNC 60544 e 0 std::_Vector_base<char, google_breakpad::PageStdAllocator<char> >::_M_get_Tp_allocator
FUNC 60552 1a 0 std::move_iterator<char*>::move_iterator
FUNC 6056c bf 0 std::__uninitialized_copy_a<std::move_iterator<char*>, char*, google_breakpad::PageStdAllocator<char> >
FUNC 6062b 2e 0 std::allocator_traits<google_breakpad::PageStdAllocator<char> >::deallocate
FUNC 60659 26 0 std::allocator_traits<google_breakpad::PageStdAllocator<char> >::_S_destroy<char>
FUNC 6067f 26 0 std::allocator_traits<google_breakpad::PageStdAllocator<char> >::construct<char>
FUNC 606a5 2a 0 std::allocator_traits<google_breakpad::PageStdAllocator<char> >::allocate
FUNC 606d0 26 0 std::allocator<MDMemoryDescriptor>::allocator
FUNC 606f6 1d 0 std::allocator_traits<google_breakpad::PageStdAllocator<MDMemoryDescriptor> >::_S_max_size<const google_breakpad::PageStdAllocator<MDMemoryDescriptor>, void>
FUNC 60713 28 0 std::operator!=<MDMemoryDescriptor*>
FUNC 6073c 20 0 std::move_iterator<MDMemoryDescriptor*>::operator++
FUNC 6075c 11 0 std::move_iterator<MDMemoryDescriptor*>::operator*
FUNC 6076d e 0 std::forward<MDMemoryDescriptor>
FUNC 6077b 39 0 std::allocator_traits<google_breakpad::PageStdAllocator<MDMemoryDescriptor> >::construct<MDMemoryDescriptor, MDMemoryDescriptor>
FUNC 607b4 13 0 google_breakpad::PageStdAllocator<MDMemoryDescriptor>::deallocate
FUNC 607c8 f 0 __gnu_cxx::new_allocator<MDMemoryDescriptor>::destroy<MDMemoryDescriptor>
FUNC 607d8 50 0 google_breakpad::PageStdAllocator<MDMemoryDescriptor>::allocate
FUNC 60828 1d 0 std::allocator_traits<google_breakpad::PageStdAllocator<char> >::_S_max_size<const google_breakpad::PageStdAllocator<char>, void>
FUNC 60845 28 0 std::operator!=<char*>
FUNC 6086e 20 0 std::move_iterator<char*>::operator++
FUNC 6088e 11 0 std::move_iterator<char*>::operator*
FUNC 6089f e 0 std::forward<char>
FUNC 608ad 39 0 std::allocator_traits<google_breakpad::PageStdAllocator<char> >::construct<char, char>
FUNC 608e6 13 0 google_breakpad::PageStdAllocator<char>::deallocate
FUNC 608fa f 0 __gnu_cxx::new_allocator<char>::destroy<char>
FUNC 60909 26 0 std::allocator_traits<google_breakpad::PageStdAllocator<char> >::_S_construct<char>
FUNC 60930 4c 0 google_breakpad::PageStdAllocator<char>::allocate
FUNC 6097c f 0 __gnu_cxx::new_allocator<MDMemoryDescriptor>::new_allocator
FUNC 6098c 14 0 __gnu_cxx::new_allocator<MDMemoryDescriptor>::max_size
FUNC 609a0 39 0 std::operator==<MDMemoryDescriptor*>
FUNC 609d9 39 0 std::allocator_traits<google_breakpad::PageStdAllocator<MDMemoryDescriptor> >::_S_construct<MDMemoryDescriptor, MDMemoryDescriptor>
FUNC 60a12 11 0 __gnu_cxx::new_allocator<char>::max_size
FUNC 60a23 39 0 std::operator==<char*>
FUNC 60a5c 39 0 std::allocator_traits<google_breakpad::PageStdAllocator<char> >::_S_construct<char, char>
FUNC 60a96 2c 0 __gnu_cxx::new_allocator<char>::construct<char>
FUNC 60ac2 11 0 std::move_iterator<MDMemoryDescriptor*>::base
FUNC 60ad4 53 0 __gnu_cxx::new_allocator<MDMemoryDescriptor>::construct<MDMemoryDescriptor, MDMemoryDescriptor>
FUNC 60b28 11 0 std::move_iterator<char*>::base
FUNC 60b3a 44 0 __gnu_cxx::new_allocator<char>::construct<char, char>
FUNC 60b7e 49 0 sys_close
FUNC 60bc7 57 0 sys_lseek
FUNC 60c1e 57 0 sys_open
FUNC 60c75 56 0 sys_write
FUNC 60ccc 34 0 google_breakpad::MinidumpFileWriter::MinidumpFileWriter
FUNC 60d00 27 0 google_breakpad::MinidumpFileWriter::~MinidumpFileWriter
FUNC 60d28 66 0 google_breakpad::MinidumpFileWriter::Open
FUNC 60d8e 4d 0 google_breakpad::MinidumpFileWriter::SetFile
FUNC 60ddc 69 0 google_breakpad::MinidumpFileWriter::Close
FUNC 60e46 b3 0 google_breakpad::MinidumpFileWriter::CopyStringToMDString
FUNC 60efa ba 0 google_breakpad::MinidumpFileWriter::CopyStringToMDString
FUNC 60fb4 30 0 google_breakpad::MinidumpFileWriter::WriteString
FUNC 60fe4 30 0 google_breakpad::MinidumpFileWriter::WriteString
FUNC 61014 f4 0 google_breakpad::MinidumpFileWriter::WriteMemory
FUNC 61108 118 0 google_breakpad::MinidumpFileWriter::Allocate
FUNC 61220 107 0 google_breakpad::MinidumpFileWriter::Copy
FUNC 61328 7a 0 google_breakpad::UntypedMDRVA::Allocate
FUNC 613a2 c1 0 google_breakpad::UntypedMDRVA::Copy
FUNC 61464 12 0 google_breakpad::UntypedMDRVA::size
FUNC 61476 b 0 google_breakpad::minidump_size<MDString>::size
FUNC 61482 12 0 google_breakpad::TypedMDRVA<MDString>::get
FUNC 61494 84 0 google_breakpad::TypedMDRVA<MDString>::CopyIndexAfterObject
FUNC 61518 187 0 google_breakpad::MinidumpFileWriter::WriteStringCore<wchar_t>
FUNC 616a0 180 0 google_breakpad::MinidumpFileWriter::WriteStringCore<char>
FUNC 61820 46 0 google_breakpad::TypedMDRVA<MDString>::TypedMDRVA
FUNC 61866 27 0 google_breakpad::TypedMDRVA<MDString>::~TypedMDRVA
FUNC 6188e 71 0 google_breakpad::TypedMDRVA<MDString>::AllocateObjectAndArray
FUNC 61900 34 0 google_breakpad::TypedMDRVA<MDString>::Flush
FUNC 61934 124 0 google_breakpad::UTF8ToUTF16
FUNC 61a58 ba 0 google_breakpad::UTF8ToUTF16Char
FUNC 61b12 128 0 google_breakpad::UTF32ToUTF16
FUNC 61c3a 93 0 google_breakpad::UTF32ToUTF16Char
FUNC 61ccd 1e 0 google_breakpad::Swap
FUNC 61ceb 2d8 0 google_breakpad::UTF16ToUTF8
FUNC 61fc4 25 0 std::vector<short unsigned int, std::allocator<short unsigned int> >::clear
FUNC 61fea 25 0 std::vector<short unsigned int, std::allocator<short unsigned int> >::begin
FUNC 62010 29 0 __gnu_cxx::__normal_iterator<short unsigned int const*, std::vector<short unsigned int, std::allocator<short unsigned int> > >::__normal_iterator<short unsigned int*>
FUNC 6203a 9e 0 std::vector<short unsigned int, std::allocator<short unsigned int> >::insert
FUNC 620d8 1f 0 std::vector<short unsigned int, std::allocator<short unsigned int> >::operator[]
FUNC 620f8 25 0 std::vector<short unsigned int, std::allocator<short unsigned int> >::capacity
FUNC 6211e 8b 0 std::vector<short unsigned int, std::allocator<short unsigned int> >::resize
FUNC 621aa 1f 0 std::vector<short unsigned int, std::allocator<short unsigned int> >::operator[]
FUNC 621ca 1a 0 google_breakpad::scoped_array<short unsigned int>::scoped_array
FUNC 621e4 2a 0 google_breakpad::scoped_array<short unsigned int>::~scoped_array
FUNC 6220e 25 0 std::vector<short unsigned int, std::allocator<short unsigned int> >::size
FUNC 62234 46 0 google_breakpad::scoped_array<short unsigned int>::reset
FUNC 6227a 11 0 google_breakpad::scoped_array<short unsigned int>::get
FUNC 6228c 30 0 std::vector<short unsigned int, std::allocator<short unsigned int> >::begin
FUNC 622bc 31 0 std::vector<short unsigned int, std::allocator<short unsigned int> >::end
FUNC 622ed 3c 0 __gnu_cxx::operator!=<short unsigned int const*, std::vector<short unsigned int> >
FUNC 6232a 20 0 __gnu_cxx::__normal_iterator<short unsigned int const*, std::vector<short unsigned int, std::allocator<short unsigned int> > >::operator++
FUNC 6234a 11 0 __gnu_cxx::__normal_iterator<short unsigned int const*, std::vector<short unsigned int, std::allocator<short unsigned int> > >::operator*
FUNC 6235c 1a 0 google_breakpad::scoped_array<unsigned char>::scoped_array
FUNC 62376 2a 0 google_breakpad::scoped_array<unsigned char>::~scoped_array
FUNC 623a0 11 0 google_breakpad::scoped_array<unsigned char>::get
FUNC 623b2 45 0 std::vector<short unsigned int, std::allocator<short unsigned int> >::_M_erase_at_end
FUNC 623f8 1d 0 __gnu_cxx::__normal_iterator<short unsigned int*, std::vector<short unsigned int, std::allocator<short unsigned int> > >::__normal_iterator
FUNC 62416 e 0 __gnu_cxx::__normal_iterator<short unsigned int*, std::vector<short unsigned int, std::allocator<short unsigned int> > >::base
FUNC 62424 30 0 std::vector<short unsigned int, std::allocator<short unsigned int> >::cbegin
FUNC 62454 42 0 __gnu_cxx::operator-<short unsigned int const*, std::vector<short unsigned int> >
FUNC 62496 49d 0 std::vector<short unsigned int, std::allocator<short unsigned int> >::_M_fill_insert
FUNC 62934 3e 0 __gnu_cxx::__normal_iterator<short unsigned int*, std::vector<short unsigned int, std::allocator<short unsigned int> > >::operator+
FUNC 62972 203 0 std::vector<short unsigned int, std::allocator<short unsigned int> >::_M_default_append
FUNC 62b76 1d 0 __gnu_cxx::__normal_iterator<short unsigned int const*, std::vector<short unsigned int, std::allocator<short unsigned int> > >::__normal_iterator
FUNC 62b94 e 0 __gnu_cxx::__normal_iterator<short unsigned int const*, std::vector<short unsigned int, std::allocator<short unsigned int> > >::base
FUNC 62ba2 e 0 std::_Vector_base<short unsigned int, std::allocator<short unsigned int> >::_M_get_Tp_allocator
FUNC 62bb0 2a 0 std::_Destroy<short unsigned int*, short unsigned int>
FUNC 62bda 29 0 std::vector<short unsigned int, std::allocator<short unsigned int> >::end
FUNC 62c03 42 0 __gnu_cxx::operator-<short unsigned int*, std::vector<short unsigned int> >
FUNC 62c45 54 0 std::__uninitialized_move_a<short unsigned int*, short unsigned int*, std::allocator<short unsigned int> >
FUNC 62c99 4c 0 std::move_backward<short unsigned int*, short unsigned int*>
FUNC 62ce5 4d 0 std::fill<short unsigned int*, short unsigned int>
FUNC 62d32 31 0 std::__uninitialized_fill_n_a<short unsigned int*, long unsigned int, short unsigned int, short unsigned int>
FUNC 62d64 c9 0 std::vector<short unsigned int, std::allocator<short unsigned int> >::_M_check_len
FUNC 62e2e 33 0 std::_Vector_base<short unsigned int, std::allocator<short unsigned int> >::_M_allocate
FUNC 62e61 54 0 std::__uninitialized_move_if_noexcept_a<short unsigned int*, short unsigned int*, std::allocator<short unsigned int> >
FUNC 62eb6 35 0 std::_Vector_base<short unsigned int, std::allocator<short unsigned int> >::_M_deallocate
FUNC 62eeb 29 0 std::__uninitialized_default_n_a<short unsigned int*, long unsigned int, short unsigned int>
FUNC 62f14 26 0 std::_Destroy<short unsigned int*>
FUNC 62f3a 25 0 std::make_move_iterator<short unsigned int*>
FUNC 62f5f 31 0 std::__uninitialized_copy_a<std::move_iterator<short unsigned int*>, short unsigned int*, short unsigned int>
FUNC 62f90 1a 0 std::__miter_base<short unsigned int*>
FUNC 62faa 58 0 std::__copy_move_backward_a2<true, short unsigned int*, short unsigned int*>
FUNC 63002 1a 0 std::__niter_base<short unsigned int*>
FUNC 6301c 3a 0 std::__fill_a<short unsigned int*, short unsigned int>
FUNC 63056 31 0 std::uninitialized_fill_n<short unsigned int*, long unsigned int, short unsigned int>
FUNC 63088 22 0 std::vector<short unsigned int, std::allocator<short unsigned int> >::max_size
FUNC 630aa 2a 0 std::allocator_traits<std::allocator<short unsigned int> >::allocate
FUNC 630d4 25 0 std::__make_move_if_noexcept_iterator<short unsigned int*, std::move_iterator<short unsigned int*> >
FUNC 630f9 2e 0 std::allocator_traits<std::allocator<short unsigned int> >::deallocate
FUNC 63127 29 0 std::__uninitialized_default_n<short unsigned int*, long unsigned int>
FUNC 63150 f 0 std::_Destroy_aux<true>::__destroy<short unsigned int*>
FUNC 63160 1a 0 std::move_iterator<short unsigned int*>::move_iterator
FUNC 6317a 31 0 std::uninitialized_copy<std::move_iterator<short unsigned int*>, short unsigned int*>
FUNC 631ab e 0 std::_Iter_base<short unsigned int*, false>::_S_base
FUNC 631b9 31 0 std::__copy_move_backward_a<true, short unsigned int*, short unsigned int*>
FUNC 631ea 2d 0 std::__uninitialized_fill_n<true>::__uninit_fill_n<short unsigned int*, long unsigned int, short unsigned int>
FUNC 63217 1a 0 std::allocator_traits<std::allocator<short unsigned int> >::max_size
FUNC 63232 e 0 std::_Vector_base<short unsigned int, std::allocator<short unsigned int> >::_M_get_Tp_allocator
FUNC 63240 41 0 __gnu_cxx::new_allocator<short unsigned int>::allocate
FUNC 63282 23 0 __gnu_cxx::new_allocator<short unsigned int>::deallocate
FUNC 632a5 2f 0 std::__uninitialized_default_n_1<true>::__uninit_default_n<short unsigned int*, long unsigned int>
FUNC 632d4 2d 0 std::__uninitialized_copy<true>::__uninit_copy<std::move_iterator<short unsigned int*>, short unsigned int*>
FUNC 63301 71 0 std::__copy_move_backward<true, true, std::random_access_iterator_tag>::__copy_move_b<short unsigned int>
FUNC 63372 38 0 std::fill_n<short unsigned int*, long unsigned int, short unsigned int>
FUNC 633aa 14 0 __gnu_cxx::new_allocator<short unsigned int>::max_size
FUNC 633be 4c 0 std::copy<std::move_iterator<short unsigned int*>, short unsigned int*>
FUNC 6340a 47 0 std::__fill_n_a<short unsigned int*, long unsigned int, short unsigned int>
FUNC 63451 1a 0 std::__miter_base<std::move_iterator<short unsigned int*> >
FUNC 6346b 58 0 std::__copy_move_a2<true, short unsigned int*, short unsigned int*>
FUNC 634c3 1a 0 std::_Iter_base<std::move_iterator<short unsigned int*>, true>::_S_base
FUNC 634dd 31 0 std::__copy_move_a<true, short unsigned int*, short unsigned int*>
FUNC 6350e 11 0 std::move_iterator<short unsigned int*>::base
FUNC 6351f 5c 0 std::__copy_move<true, true, std::random_access_iterator_tag>::__copy_m<short unsigned int>
FUNC 6357b 2b 0 google_breakpad::IsValidElf
FUNC 635a6 1d 0 google_breakpad::ElfClass
FUNC 635c3 158 0 google_breakpad::FindElfSection
FUNC 6371b 146 0 google_breakpad::FindElfSegment
FUNC 63861 1d5 0 FindElfClassSection<google_breakpad::ElfClass32>
FUNC 63a36 1ce 0 FindElfClassSection<google_breakpad::ElfClass64>
FUNC 63c04 190 0 FindElfClassSegment<google_breakpad::ElfClass32>
FUNC 63d94 1af 0 FindElfClassSegment<google_breakpad::ElfClass64>
FUNC 63f43 17 0 google_breakpad::GetOffset<google_breakpad::ElfClass32, Elf32_Shdr>
FUNC 63f5a 17 0 google_breakpad::GetOffset<google_breakpad::ElfClass32, char>
FUNC 63f71 184 0 google_breakpad::FindElfSectionByName<google_breakpad::ElfClass32>
FUNC 640f5 19 0 google_breakpad::GetOffset<google_breakpad::ElfClass64, Elf64_Shdr>
FUNC 6410e 19 0 google_breakpad::GetOffset<google_breakpad::ElfClass64, char>
FUNC 64127 163 0 google_breakpad::FindElfSectionByName<google_breakpad::ElfClass64>
FUNC 6428a 17 0 google_breakpad::GetOffset<google_breakpad::ElfClass32, Elf32_Phdr>
FUNC 642a1 19 0 google_breakpad::GetOffset<google_breakpad::ElfClass64, Elf64_Phdr>
FUNC 642ba 88 0 sys_mmap
FUNC 64342 63 0 google_breakpad::FileID::FileID
FUNC 643a5 dd 0 google_breakpad::FindElfBuildIDNote
FUNC 64482 120 0 google_breakpad::HashElfTextSection
FUNC 645a2 43 0 google_breakpad::FileID::ElfFileIdentifierFromMappedFile
FUNC 645e6 a2 0 google_breakpad::FileID::ElfFileIdentifier
FUNC 64688 158 0 google_breakpad::FileID::ConvertIdentifierToUUIDString
FUNC 647e0 fd 0 google_breakpad::ElfClassBuildIDNoteIdentifier<google_breakpad::ElfClass32>
FUNC 648dd fd 0 google_breakpad::ElfClassBuildIDNoteIdentifier<google_breakpad::ElfClass64>
FUNC 649da 89 0 std::vector<unsigned char, google_breakpad::PageStdAllocator<unsigned char> >::resize
FUNC 64a64 1d 0 std::vector<unsigned char, google_breakpad::PageStdAllocator<unsigned char> >::operator[]
FUNC 64a82 1fe 0 std::vector<unsigned char, google_breakpad::PageStdAllocator<unsigned char> >::_M_default_append
FUNC 64c80 45 0 std::vector<unsigned char, google_breakpad::PageStdAllocator<unsigned char> >::_M_erase_at_end
FUNC 64cc5 92 0 std::__uninitialized_default_n_a<unsigned char*, long unsigned int, google_breakpad::PageStdAllocator<unsigned char> >
FUNC 64d57 26 0 std::allocator_traits<google_breakpad::PageStdAllocator<unsigned char> >::construct<unsigned char>
FUNC 64d7d 26 0 std::allocator_traits<google_breakpad::PageStdAllocator<unsigned char> >::_S_construct<unsigned char>
FUNC 64da4 2c 0 __gnu_cxx::new_allocator<unsigned char>::construct<unsigned char>
FUNC 64dd0 1a 0 CreateGUID
FUNC 64dea d2 0 GUIDToString
FUNC 64ebc 4d 0 GUIDGenerator::BytesToUInt32
FUNC 64f09 49 0 GUIDGenerator::UInt32ToBytes
FUNC 64f52 75 0 GUIDGenerator::CreateGUID
FUNC 64fc7 20 0 GUIDGenerator::InitOnce
FUNC 64fe7 18 0 GUIDGenerator::InitOnceImpl
FUNC 64fff 35 0 my_strlen
FUNC 65034 5e 0 my_strcmp
FUNC 65092 7e 0 my_strncmp
FUNC 65110 99 0 my_strtoui
FUNC 651a9 4b 0 my_uint_len
FUNC 651f4 82 0 my_uitos
FUNC 65276 44 0 my_strchr
FUNC 652ba 41 0 my_strrchr
FUNC 652fb 53 0 my_memchr
FUNC 6534e bd 0 my_read_hex_ptr
FUNC 6540b 6a 0 my_read_decimal_ptr
FUNC 65475 46 0 my_memset
FUNC 654bb 82 0 my_strlcpy
FUNC 6553d 80 0 my_strlcat
FUNC 655bd 4f 0 my_isspace
FUNC 6560c 49 0 sys_close
FUNC 65655 51 0 sys_fstat
FUNC 656a6 50 0 sys_munmap
FUNC 656f6 57 0 sys_open
FUNC 6574d 88 0 sys_mmap
FUNC 657d6 1b 0 google_breakpad::MemoryMappedFile::MemoryMappedFile
FUNC 657f2 3a 0 google_breakpad::MemoryMappedFile::MemoryMappedFile
FUNC 6582c 1b 0 google_breakpad::MemoryMappedFile::~MemoryMappedFile
FUNC 65848 139 0 google_breakpad::MemoryMappedFile::Map
FUNC 65982 67 0 google_breakpad::MemoryMappedFile::Unmap
FUNC 659ea 22 0 google_breakpad::MemoryRange::MemoryRange
FUNC 65a0c 38 0 google_breakpad::MemoryRange::Set
FUNC 65a44 55 0 sys_readlink
FUNC 65a99 5e 0 google_breakpad::SafeReadLink
FUNC 65af8 49 0 sys_close
FUNC 65b41 56 0 sys_read
FUNC 65b97 57 0 sys_sendmsg
FUNC 65bee 48 0 sys_pipe
FUNC 65c36 36 0 CrashGenerationClientImpl::CrashGenerationClientImpl
FUNC 65c6c 3d 0 CrashGenerationClientImpl::~CrashGenerationClientImpl
FUNC 65caa 26 0 CrashGenerationClientImpl::~CrashGenerationClientImpl
FUNC 65cd0 1b6 0 CrashGenerationClientImpl::RequestDump
FUNC 65e86 3d 0 google_breakpad::CrashGenerationClient::TryCreate
FUNC 65ec4 1d 0 google_breakpad::CrashGenerationClient::CrashGenerationClient
FUNC 65ee2 35 0 google_breakpad::CrashGenerationClient::~CrashGenerationClient
FUNC 65f18 26 0 google_breakpad::CrashGenerationClient::~CrashGenerationClient
FUNC 65f3e 15 0 google_breakpad::ThreadInfo::GetInstructionPointer
FUNC 65f54 37e 0 google_breakpad::ThreadInfo::FillCPUContext
FUNC 662d2 6c 0 google_breakpad::ThreadInfo::GetGeneralPurposeRegisters
FUNC 6633e 6f 0 google_breakpad::ThreadInfo::GetFloatingPointRegisters
FUNC 663ae 15 0 google_breakpad::UContextReader::GetStackPointer
FUNC 663c4 15 0 google_breakpad::UContextReader::GetInstructionPointer
FUNC 663da 32a 0 google_breakpad::UContextReader::FillCPUContext
FUNC 66710 c7 0 isLegalUTF8
FUNC 667e0 fd 0 ConvertUTF32toUTF16
FUNC 668e0 fe 0 ConvertUTF16toUTF32
FUNC 669e0 1ff 0 ConvertUTF16toUTF8
FUNC 66be0 2b 0 isLegalUTF8Sequence
FUNC 66c10 26f 0 ConvertUTF8toUTF16
FUNC 66e80 19a 0 ConvertUTF32toUTF8
FUNC 67020 287 0 ConvertUTF8toUTF32
FUNC 672a8 268 0 google_breakpad::GoogleCrashdumpUploader::GoogleCrashdumpUploader
FUNC 67510 23a 0 google_breakpad::GoogleCrashdumpUploader::GoogleCrashdumpUploader
FUNC 6774a 2b2 0 google_breakpad::GoogleCrashdumpUploader::Init
FUNC 679fc 110 0 google_breakpad::GoogleCrashdumpUploader::CheckRequiredParametersArePresent
FUNC 67b0c 6e6 0 google_breakpad::GoogleCrashdumpUploader::Upload
FUNC 681f2 3e 0 __static_initialization_and_destruction_0
FUNC 68230 15 0 _GLOBAL__sub_I__ZN15google_breakpad23GoogleCrashdumpUploaderC2ERKNSt7__cxx1112basic_stringIcSt11char_traitsIcESaIcEEES8_S8_S8_S8_S8_S8_S8_S8_S8_S8_
FUNC 68246 1a 0 google_breakpad::scoped_ptr<google_breakpad::LibcurlWrapper>::scoped_ptr
FUNC 68260 1b 0 std::map<std::__cxx11::basic_string<char, std::char_traits<char>, std::allocator<char> >, std::__cxx11::basic_string<char, std::char_traits<char>, std::allocator<char> >, std::less<std::__cxx11::basic_string<char, std::char_traits<char>, std::allocator<char> > >, std::allocator<std::pair<const std::__cxx11::basic_string<char, std::char_traits<char>, std::allocator<char> >, std::__cxx11::basic_string<char, std::char_traits<char>, std::allocator<char> > > > >::map
FUNC 6827c 54 0 google_breakpad::scoped_ptr<google_breakpad::LibcurlWrapper>::reset
FUNC 682d0 3a 0 google_breakpad::scoped_ptr<google_breakpad::LibcurlWrapper>::operator->
FUNC 6830a 130 0 std::map<std::__cxx11::basic_string<char, std::char_traits<char>, std::allocator<char> >, std::__cxx11::basic_string<char, std::char_traits<char>, std::allocator<char> >, std::less<std::__cxx11::basic_string<char, std::char_traits<char>, std::allocator<char> > >, std::allocator<std::pair<const std::__cxx11::basic_string<char, std::char_traits<char>, std::allocator<char> >, std::__cxx11::basic_string<char, std::char_traits<char>, std::allocator<char> > > > >::operator[]
FUNC 6843a 1b 0 std::_Rb_tree<std::__cxx11::basic_string<char, std::char_traits<char>, std::allocator<char> >, std::pair<const std::__cxx11::basic_string<char, std::char_traits<char>, std::allocator<char> >, std::__cxx11::basic_string<char, std::char_traits<char>, std::allocator<char> > >, std::_Select1st<std::pair<const std::__cxx11::basic_string<char, std::char_traits<char>, std::allocator<char> >, std::__cxx11::basic_string<char, std::char_traits<char>, std::allocator<char> > > >, std::less<std::__cxx11::basic_string<char, std::char_traits<char>, std::allocator<char> > >, std::allocator<std::pair<const std::__cxx11::basic_string<char, std::char_traits<char>, std::allocator<char> >, std::__cxx11::basic_string<char, std::char_traits<char>, std::allocator<char> > > > >::_Rb_tree
FUNC 68456 25 0 std::map<std::__cxx11::basic_string<char, std::char_traits<char>, std::allocator<char> >, std::__cxx11::basic_string<char, std::char_traits<char>, std::allocator<char> >, std::less<std::__cxx11::basic_string<char, std::char_traits<char>, std::allocator<char> > >, std::allocator<std::pair<const std::__cxx11::basic_string<char, std::char_traits<char>, std::allocator<char> >, std::__cxx11::basic_string<char, std::char_traits<char>, std::allocator<char> > > > >::lower_bound
FUNC 6847c 1a 0 std::map<std::__cxx11::basic_string<char, std::char_traits<char>, std::allocator<char> >, std::__cxx11::basic_string<char, std::char_traits<char>, std::allocator<char> >, std::less<std::__cxx11::basic_string<char, std::char_traits<char>, std::allocator<char> > >, std::allocator<std::pair<const std::__cxx11::basic_string<char, std::char_traits<char>, std::allocator<char> >, std::__cxx11::basic_string<char, std::char_traits<char>, std::allocator<char> > > > >::end
FUNC 68496 22 0 std::map<std::__cxx11::basic_string<char, std::char_traits<char>, std::allocator<char> >, std::__cxx11::basic_string<char, std::char_traits<char>, std::allocator<char> >, std::less<std::__cxx11::basic_string<char, std::char_traits<char>, std::allocator<char> > >, std::allocator<std::pair<const std::__cxx11::basic_string<char, std::char_traits<char>, std::allocator<char> >, std::__cxx11::basic_string<char, std::char_traits<char>, std::allocator<char> > > > >::key_comp
FUNC 684b8 1d 0 std::_Rb_tree_iterator<std::pair<const std::__cxx11::basic_string<char, std::char_traits<char>, std::allocator<char> >, std::__cxx11::basic_string<char, std::char_traits<char>, std::allocator<char> > > >::operator*
FUNC 684d6 29 0 std::_Head_base<0ul, std::__cxx11::basic_string<char, std::char_traits<char>, std::allocator<char> >&&, false>::_Head_base<std::__cxx11::basic_string<char> >
FUNC 68500 31 0 std::_Tuple_impl<0ul, std::__cxx11::basic_string<char, std::char_traits<char>, std::allocator<char> >&&>::_Tuple_impl<std::__cxx11::basic_string<char> >
FUNC 68532 31 0 std::tuple<std::__cxx11::basic_string<char, std::char_traits<char>, std::allocator<char> >&&>::tuple<std::__cxx11::basic_string<char, std::char_traits<char>, std::allocator<char> >, void>
FUNC 68563 11 0 std::_Head_base<0ul, std::__cxx11::basic_string<char, std::char_traits<char>, std::allocator<char> >&&, false>::_M_head
FUNC 68574 1a 0 std::_Tuple_impl<0ul, std::__cxx11::basic_string<char, std::char_traits<char>, std::allocator<char> >&&>::_M_head
FUNC 6858e e 0 std::forward<std::__cxx11::basic_string<char>&&>
FUNC 6859c 39 0 std::_Tuple_impl<0ul, std::__cxx11::basic_string<char, std::char_traits<char>, std::allocator<char> >&&>::_Tuple_impl
FUNC 685d6 26 0 std::tuple<std::__cxx11::basic_string<char, std::char_traits<char>, std::allocator<char> >&&>::tuple
FUNC 685fc 34 0 std::forward_as_tuple<std::__cxx11::basic_string<char, std::char_traits<char>, std::allocator<char> > >
FUNC 68630 e 0 std::forward<const std::piecewise_construct_t&>
FUNC 6863e e 0 std::forward<std::tuple<std::__cxx11::basic_string<char, std::char_traits<char>, std::allocator<char> >&&> >
FUNC 6864c e 0 std::forward<std::tuple<> >
FUNC 6865a 117 0 std::_Rb_tree<std::__cxx11::basic_string<char, std::char_traits<char>, std::allocator<char> >, std::pair<const std::__cxx11::basic_string<char, std::char_traits<char>, std::allocator<char> >, std::__cxx11::basic_string<char, std::char_traits<char>, std::allocator<char> > >, std::_Select1st<std::pair<const std::__cxx11::basic_string<char, std::char_traits<char>, std::allocator<char> >, std::__cxx11::basic_string<char, std::char_traits<char>, std::allocator<char> > > >, std::less<std::__cxx11::basic_string<char, std::char_traits<char>, std::allocator<char> > >, std::allocator<std::pair<const std::__cxx11::basic_string<char, std::char_traits<char>, std::allocator<char> >, std::__cxx11::basic_string<char, std::char_traits<char>, std::allocator<char> > > > >::_M_emplace_hint_unique<const std::piecewise_construct_t&, std::tuple<std::__cxx11::basic_string<char, std::char_traits<char>, std::allocator<char> >&&>, std::tuple<> >
FUNC 68772 62 0 std::_Rb_tree<std::__cxx11::basic_string<char, std::char_traits<char>, std::allocator<char> >, std::pair<const std::__cxx11::basic_string<char, std::char_traits<char>, std::allocator<char> >, std::__cxx11::basic_string<char, std::char_traits<char>, std::allocator<char> > >, std::_Select1st<std::pair<const std::__cxx11::basic_string<char, std::char_traits<char>, std::allocator<char> >, std::__cxx11::basic_string<char, std::char_traits<char>, std::allocator<char> > > >, std::less<std::__cxx11::basic_string<char, std::char_traits<char>, std::allocator<char> > >, std::allocator<std::pair<const std::__cxx11::basic_string<char, std::char_traits<char>, std::allocator<char> >, std::__cxx11::basic_string<char, std::char_traits<char>, std::allocator<char> > > > >::_Rb_tree_impl<std::less<std::__cxx11::basic_string<char, std::char_traits<char>, std::allocator<char> > >, true>::_Rb_tree_impl
FUNC 687d4 4c 0 std::_Rb_tree<std::__cxx11::basic_string<char, std::char_traits<char>, std::allocator<char> >, std::pair<const std::__cxx11::basic_string<char, std::char_traits<char>, std::allocator<char> >, std::__cxx11::basic_string<char, std::char_traits<char>, std::allocator<char> > >, std::_Select1st<std::pair<const std::__cxx11::basic_string<char, std::char_traits<char>, std::allocator<char> >, std::__cxx11::basic_string<char, std::char_traits<char>, std::allocator<char> > > >, std::less<std::__cxx11::basic_string<char, std::char_traits<char>, std::allocator<char> > >, std::allocator<std::pair<const std::__cxx11::basic_string<char, std::char_traits<char>, std::allocator<char> >, std::__cxx11::basic_string<char, std::char_traits<char>, std::allocator<char> > > > >::lower_bound
FUNC 68820 a 0 std::_Rb_tree<std::__cxx11::basic_string<char, std::char_traits<char>, std::allocator<char> >, std::pair<const std::__cxx11::basic_string<char, std::char_traits<char>, std::allocator<char> >, std::__cxx11::basic_string<char, std::char_traits<char>, std::allocator<char> > >, std::_Select1st<std::pair<const std::__cxx11::basic_string<char, std::char_traits<char>, std::allocator<char> >, std::__cxx11::basic_string<char, std::char_traits<char>, std::allocator<char> > > >, std::less<std::__cxx11::basic_string<char, std::char_traits<char>, std::allocator<char> > >, std::allocator<std::pair<const std::__cxx11::basic_string<char, std::char_traits<char>, std::allocator<char> >, std::__cxx11::basic_string<char, std::char_traits<char>, std::allocator<char> > > > >::key_comp
FUNC 6882a 7b 0 std::_Rb_tree<std::__cxx11::basic_string<char, std::char_traits<char>, std::allocator<char> >, std::pair<const std::__cxx11::basic_string<char, std::char_traits<char>, std::allocator<char> >, std::__cxx11::basic_string<char, std::char_traits<char>, std::allocator<char> > >, std::_Select1st<std::pair<const std::__cxx11::basic_string<char, std::char_traits<char>, std::allocator<char> >, std::__cxx11::basic_string<char, std::char_traits<char>, std::allocator<char> > > >, std::less<std::__cxx11::basic_string<char, std::char_traits<char>, std::allocator<char> > >, std::allocator<std::pair<const std::__cxx11::basic_string<char, std::char_traits<char>, std::allocator<char> >, std::__cxx11::basic_string<char, std::char_traits<char>, std::allocator<char> > > > >::_M_create_node<const std::piecewise_construct_t&, std::tuple<std::__cxx11::basic_string<char, std::char_traits<char>, std::allocator<char> >&&>, std::tuple<> >
FUNC 688a6 c2 0 std::_Rb_tree<std::__cxx11::basic_string<char, std::char_traits<char>, std::allocator<char> >, std::pair<const std::__cxx11::basic_string<char, std::char_traits<char>, std::allocator<char> >, std::__cxx11::basic_string<char, std::char_traits<char>, std::allocator<char> > >, std::_Select1st<std::pair<const std::__cxx11::basic_string<char, std::char_traits<char>, std::allocator<char> >, std::__cxx11::basic_string<char, std::char_traits<char>, std::allocator<char> > > >, std::less<std::__cxx11::basic_string<char, std::char_traits<char>, std::allocator<char> > >, std::allocator<std::pair<const std::__cxx11::basic_string<char, std::char_traits<char>, std::allocator<char> >, std::__cxx11::basic_string<char, std::char_traits<char>, std::allocator<char> > > > >::_M_insert_node
FUNC 68968 1b 0 std::allocator<std::_Rb_tree_node<std::pair<const std::__cxx11::basic_string<char, std::char_traits<char>, std::allocator<char> >, std::__cxx11::basic_string<char, std::char_traits<char>, std::allocator<char> > > > >::allocator
FUNC 68984 8d 0 std::_Rb_tree<std::__cxx11::basic_string<char, std::char_traits<char>, std::allocator<char> >, std::pair<const std::__cxx11::basic_string<char, std::char_traits<char>, std::allocator<char> >, std::__cxx11::basic_string<char, std::char_traits<char>, std::allocator<char> > >, std::_Select1st<std::pair<const std::__cxx11::basic_string<char, std::char_traits<char>, std::allocator<char> >, std::__cxx11::basic_string<char, std::char_traits<char>, std::allocator<char> > > >, std::less<std::__cxx11::basic_string<char, std::char_traits<char>, std::allocator<char> > >, std::allocator<std::pair<const std::__cxx11::basic_string<char, std::char_traits<char>, std::allocator<char> >, std::__cxx11::basic_string<char, std::char_traits<char>, std::allocator<char> > > > >::_M_lower_bound
FUNC 68a12 df 0 std::_Rb_tree<std::__cxx11::basic_string<char, std::char_traits<char>, std::allocator<char> >, std::pair<const std::__cxx11::basic_string<char, std::char_traits<char>, std::allocator<char> >, std::__cxx11::basic_string<char, std::char_traits<char>, std::allocator<char> > >, std::_Select1st<std::pair<const std::__cxx11::basic_string<char, std::char_traits<char>, std::allocator<char> >, std::__cxx11::basic_string<char, std::char_traits<char>, std::allocator<char> > > >, std::less<std::__cxx11::basic_string<char, std::char_traits<char>, std::allocator<char> > >, std::allocator<std::pair<const std::__cxx11::basic_string<char, std::char_traits<char>, std::allocator<char> >, std::__cxx11::basic_string<char, std::char_traits<char>, std::allocator<char> > > > >::_M_construct_node<const std::piecewise_construct_t&, std::tuple<std::__cxx11::basic_string<char, std::char_traits<char>, std::allocator<char> >&&>, std::tuple<> >
FUNC 68af1 6c 0 std::allocator_traits<std::allocator<std::_Rb_tree_node<std::pair<const std::__cxx11::basic_string<char, std::char_traits<char>, std::allocator<char> >, std::__cxx11::basic_string<char, std::char_traits<char>, std::allocator<char> > > > > >::construct<std::pair<const std::__cxx11::basic_string<char>, std::__cxx11::basic_string<char> >, const std::piecewise_construct_t&, std::tuple<std::__cxx11::basic_string<char, std::char_traits<char>, std::allocator<char> >&&>, std::tuple<> >
FUNC 68b5e bb 0 __gnu_cxx::new_allocator<std::_Rb_tree_node<std::pair<const std::__cxx11::basic_string<char, std::char_traits<char>, std::allocator<char> >, std::__cxx11::basic_string<char, std::char_traits<char>, std::allocator<char> > > > >::construct<std::pair<const std::__cxx11::basic_string<char>, std::__cxx11::basic_string<char> >, const std::piecewise_construct_t&, std::tuple<std::__cxx11::basic_string<char, std::char_traits<char>, std::allocator<char> >&&>, std::tuple<> >
FUNC 68c1a 32 0 std::pair<const std::__cxx11::basic_string<char, std::char_traits<char>, std::allocator<char> >, std::__cxx11::basic_string<char, std::char_traits<char>, std::allocator<char> > >::pair<std::__cxx11::basic_string<char, std::char_traits<char>, std::allocator<char> >&&>
FUNC 68c4c 1a 0 std::__get_helper<0ul, std::__cxx11::basic_string<char>&&>
FUNC 68c66 1a 0 std::get<0ul, std::__cxx11::basic_string<char, std::char_traits<char>, std::allocator<char> >&&>
FUNC 68c80 4d 0 std::pair<const std::__cxx11::basic_string<char, std::char_traits<char>, std::allocator<char> >, std::__cxx11::basic_string<char, std::char_traits<char>, std::allocator<char> > >::pair<std::__cxx11::basic_string<char, std::char_traits<char>, std::allocator<char> >&&, 0ul>
FUNC 68cce 11a 0 google_breakpad::LibcurlWrapper::LibcurlWrapper
FUNC 68de8 3f 0 google_breakpad::LibcurlWrapper::~LibcurlWrapper
FUNC 68e28 26 0 google_breakpad::LibcurlWrapper::~LibcurlWrapper
FUNC 68e4e 10b 0 google_breakpad::LibcurlWrapper::SetProxy
FUNC 68f5a c7 0 google_breakpad::LibcurlWrapper::AddFile
FUNC 69021 58 0 google_breakpad::WriteCallback
FUNC 6907a 37f 0 google_breakpad::LibcurlWrapper::SendRequest
FUNC 693fa 128 0 google_breakpad::LibcurlWrapper::Init
FUNC 69522 358 0 google_breakpad::LibcurlWrapper::SetFunctionPointers
FUNC 6987a 3e 0 __static_initialization_and_destruction_0
FUNC 698b8 15 0 _GLOBAL__sub_I__ZN15google_breakpad14LibcurlWrapperC2Ev
FUNC 698ce 1d 0 std::_Rb_tree_const_iterator<std::pair<const std::__cxx11::basic_string<char, std::char_traits<char>, std::allocator<char> >, std::__cxx11::basic_string<char, std::char_traits<char>, std::allocator<char> > > >::operator->
PUBLIC 3d398 0 _init
PUBLIC 3e6f0 0 _start
PUBLIC 3e720 0 deregister_tm_clones
PUBLIC 3e760 0 register_tm_clones
PUBLIC 3e7a0 0 __do_global_dtors_aux
PUBLIC 3e7c0 0 frame_dummy
PUBLIC 3e7e6 0 main::{lambda(std::__cxx11::basic_string<char, std::char_traits<char>, std::allocator<char> >, std::__cxx11::basic_string<char, std::char_traits<char>, std::allocator<char> >)#1}::operator()(std::__cxx11::basic_string<char, std::char_traits<char>, std::allocator<char> >, std::__cxx11::basic_string<char, std::char_traits<char>, std::allocator<char> >) const
PUBLIC 3e818 0 main::{lambda()#2}::operator()() const
PUBLIC 3e836 0 main
PUBLIC 3ed02 0 std::remove_reference<main::{lambda(std::__cxx11::basic_string<char, std::char_traits<char>, std::allocator<char> >, std::__cxx11::basic_string<char, std::char_traits<char>, std::allocator<char> >)#1}&>::type&& std::move<main::{lambda(std::__cxx11::basic_string<char, std::char_traits<char>, std::allocator<char> >, std::__cxx11::basic_string<char, std::char_traits<char>, std::allocator<char> >)#1}&>(std::remove_reference&&)
PUBLIC 3ed10 0 std::function<void (std::__cxx11::basic_string<char, std::char_traits<char>, std::allocator<char> >, std::__cxx11::basic_string<char, std::char_traits<char>, std::allocator<char> >)>::function<main::{lambda(std::__cxx11::basic_string<char, std::char_traits<char>, std::allocator<char> >, std::__cxx11::basic_string<char, std::char_traits<char>, std::allocator<char> >)#1}, void, void>(main::{lambda(std::__cxx11::basic_string<char, std::char_traits<char>, std::allocator<char> >, std::__cxx11::basic_string<char, std::char_traits<char>, std::allocator<char> >)#1})
PUBLIC 3eda9 0 std::remove_reference<main::{lambda()#2}&>::type&& std::move<main::{lambda()#2}&>(std::remove_reference&&)
PUBLIC 3edb8 0 std::function<void ()>::function<main::{lambda()#2}, void, void>(main::{lambda()#2})
PUBLIC 3ee51 0 bool std::_Function_base::_Base_manager<main::{lambda(std::__cxx11::basic_string<char, std::char_traits<char>, std::allocator<char> >, std::__cxx11::basic_string<char, std::char_traits<char>, std::allocator<char> >)#1}>::_M_not_empty_function<{lambda(std::__cxx11::basic_string<char, std::char_traits<char>, std::allocator<char> >, std::__cxx11::basic_string<char, std::char_traits<char>, std::allocator<char> >)#1}>({lambda(std::__cxx11::basic_string<char, std::char_traits<char>, std::allocator<char> >, std::__cxx11::basic_string<char, std::char_traits<char>, std::allocator<char> >)#1} const&)
PUBLIC 3ee60 0 std::_Function_base::_Base_manager<main::{lambda(std::__cxx11::basic_string<char, std::char_traits<char>, std::allocator<char> >, std::__cxx11::basic_string<char, std::char_traits<char>, std::allocator<char> >)#1}>::_M_init_functor(std::_Any_data&, {lambda(std::__cxx11::basic_string<char, std::char_traits<char>, std::allocator<char> >, std::__cxx11::basic_string<char, std::char_traits<char>, std::allocator<char> >)#1}&&)
PUBLIC 3ee9f 0 std::_Function_handler<void (std::__cxx11::basic_string<char, std::char_traits<char>, std::allocator<char> >, std::__cxx11::basic_string<char, std::char_traits<char>, std::allocator<char> >), main::{lambda(std::__cxx11::basic_string<char, std::char_traits<char>, std::allocator<char> >, std::__cxx11::basic_string<char, std::char_traits<char>, std::allocator<char> >)#1}>::_M_invoke(std::_Any_data const&, std::__cxx11::basic_string<char, std::char_traits<char>, std::allocator<char> >&&, std::_Any_data const&)
PUBLIC 3ef59 0 std::_Function_base::_Base_manager<main::{lambda(std::__cxx11::basic_string<char, std::char_traits<char>, std::allocator<char> >, std::__cxx11::basic_string<char, std::char_traits<char>, std::allocator<char> >)#1}>::_M_manager(std::_Any_data&, std::_Function_base::_Base_manager<main::{lambda(std::__cxx11::basic_string<char, std::char_traits<char>, std::allocator<char> >, std::__cxx11::basic_string<char, std::char_traits<char>, std::allocator<char> >)#1}> const&, std::_Manager_operation)
PUBLIC 3f007 0 bool std::_Function_base::_Base_manager<main::{lambda()#2}>::_M_not_empty_function<{lambda()#2}>({lambda()#2} const&)
PUBLIC 3f016 0 std::_Function_base::_Base_manager<main::{lambda()#2}>::_M_init_functor(std::_Any_data&, {lambda()#2}&&)
PUBLIC 3f055 0 std::_Function_handler<void (), main::{lambda()#2}>::_M_invoke(std::_Any_data const&)
PUBLIC 3f078 0 std::_Function_base::_Base_manager<main::{lambda()#2}>::_M_manager(std::_Any_data&, std::_Function_base::_Base_manager<main::{lambda()#2}> const&, std::_Manager_operation)
PUBLIC 3f126 0 std::_Function_base::_Base_manager<main::{lambda(std::__cxx11::basic_string<char, std::char_traits<char>, std::allocator<char> >, std::__cxx11::basic_string<char, std::char_traits<char>, std::allocator<char> >)#1}>::_M_init_functor(std::_Any_data&, {lambda(std::__cxx11::basic_string<char, std::char_traits<char>, std::allocator<char> >, std::__cxx11::basic_string<char, std::char_traits<char>, std::allocator<char> >)#1}&&, std::integral_constant<bool, true>)
PUBLIC 3f172 0 std::_Function_base::_Base_manager<main::{lambda(std::__cxx11::basic_string<char, std::char_traits<char>, std::allocator<char> >, std::__cxx11::basic_string<char, std::char_traits<char>, std::allocator<char> >)#1}>::_M_get_pointer(std::_Any_data const&)
PUBLIC 3f19c 0 main::{lambda(std::__cxx11::basic_string<char, std::char_traits<char>, std::allocator<char> >, std::__cxx11::basic_string<char, std::char_traits<char>, std::allocator<char> >)#1}*& std::_Any_data::_M_access<main::{lambda(std::__cxx11::basic_string<char, std::char_traits<char>, std::allocator<char> >, std::__cxx11::basic_string<char, std::char_traits<char>, std::allocator<char> >)#1}*>()
PUBLIC 3f1b6 0 std::_Function_base::_Base_manager<main::{lambda(std::__cxx11::basic_string<char, std::char_traits<char>, std::allocator<char> >, std::__cxx11::basic_string<char, std::char_traits<char>, std::allocator<char> >)#1}>::_M_clone(std::_Any_data&, std::_Function_base::_Base_manager<main::{lambda(std::__cxx11::basic_string<char, std::char_traits<char>, std::allocator<char> >, std::__cxx11::basic_string<char, std::char_traits<char>, std::allocator<char> >)#1}> const&, std::integral_constant<bool, true>)
PUBLIC 3f202 0 std::_Function_base::_Base_manager<main::{lambda(std::__cxx11::basic_string<char, std::char_traits<char>, std::allocator<char> >, std::__cxx11::basic_string<char, std::char_traits<char>, std::allocator<char> >)#1}>::_M_destroy(std::_Any_data&, std::integral_constant<bool, true>)
PUBLIC 3f21d 0 std::_Function_base::_Base_manager<main::{lambda()#2}>::_M_init_functor(std::_Any_data&, {lambda()#2}&&, std::integral_constant<bool, true>)
PUBLIC 3f269 0 std::_Function_base::_Base_manager<main::{lambda()#2}>::_M_get_pointer(std::_Any_data const&)
PUBLIC 3f294 0 main::{lambda()#2}*& std::_Any_data::_M_access<main::{lambda()#2}*>()
PUBLIC 3f2ae 0 std::_Function_base::_Base_manager<main::{lambda()#2}>::_M_clone(std::_Any_data&, std::_Function_base::_Base_manager<main::{lambda()#2}> const&, std::integral_constant<bool, true>)
PUBLIC 3f2fa 0 std::_Function_base::_Base_manager<main::{lambda()#2}>::_M_destroy(std::_Any_data&, std::integral_constant<bool, true>)
PUBLIC 3f316 0 main::{lambda(std::__cxx11::basic_string<char, std::char_traits<char>, std::allocator<char> >, std::__cxx11::basic_string<char, std::char_traits<char>, std::allocator<char> >)#1} const& std::_Any_data::_M_access<main::{lambda(std::__cxx11::basic_string<char, std::char_traits<char>, std::allocator<char> >, std::__cxx11::basic_string<char, std::char_traits<char>, std::allocator<char> >)#1}>() const
PUBLIC 3f330 0 main::{lambda(std::__cxx11::basic_string<char, std::char_traits<char>, std::allocator<char> >, std::__cxx11::basic_string<char, std::char_traits<char>, std::allocator<char> >)#1} const* std::__addressof<main::{lambda(std::__cxx11::basic_string<char, std::char_traits<char>, std::allocator<char> >, std::__cxx11::basic_string<char, std::char_traits<char>, std::allocator<char> >)#1} const>(main::{lambda(std::__cxx11::basic_string<char, std::char_traits<char>, std::allocator<char> >, std::__cxx11::basic_string<char, std::char_traits<char>, std::allocator<char> >)#1} const&)
PUBLIC 3f33e 0 main::{lambda(std::__cxx11::basic_string<char, std::char_traits<char>, std::allocator<char> >, std::__cxx11::basic_string<char, std::char_traits<char>, std::allocator<char> >)#1}& std::_Any_data::_M_access<main::{lambda(std::__cxx11::basic_string<char, std::char_traits<char>, std::allocator<char> >, std::__cxx11::basic_string<char, std::char_traits<char>, std::allocator<char> >)#1}>()
PUBLIC 3f358 0 main::{lambda()#2} const& std::_Any_data::_M_access<main::{lambda()#2}>() const
PUBLIC 3f372 0 main::{lambda()#2} const* std::__addressof<main::{lambda()#2} const>(main::{lambda()#2} const&)
PUBLIC 3f380 0 main::{lambda()#2}& std::_Any_data::_M_access<main::{lambda()#2}>()
PUBLIC 3f39a 0 operator new(unsigned long, void*)
PUBLIC 3f3ac 0 std::operator&(std::memory_order, std::__memory_order_modifier)
PUBLIC 3f3c0 0 QtPrivate::RefCount::deref()
PUBLIC 3f404 0 std::_Any_data::_M_access()
PUBLIC 3f412 0 std::_Any_data::_M_access() const
PUBLIC 3f420 0 std::_Function_base::_Function_base()
PUBLIC 3f438 0 std::_Function_base::~_Function_base()
PUBLIC 3f46e 0 Stats::~Stats()
PUBLIC 3f4aa 0 crashup::Crashup::~Crashup()
PUBLIC 3f518 0 std::function<void (std::__cxx11::basic_string<char, std::char_traits<char>, std::allocator<char> >, std::__cxx11::basic_string<char, std::char_traits<char>, std::allocator<char> >)>::~function()
PUBLIC 3f534 0 std::function<void ()>::~function()
PUBLIC 3f550 0 QBasicAtomicInteger<int>::load() const
PUBLIC 3f56a 0 QBasicAtomicInteger<int>::deref()
PUBLIC 3f584 0 std::binary_function<std::__cxx11::basic_string<char, std::char_traits<char>, std::allocator<char> >, std::__cxx11::basic_string<char, std::char_traits<char>, std::allocator<char> >, void>::binary_function()
PUBLIC 3f590 0 std::_Maybe_unary_or_binary_function<void, std::__cxx11::basic_string<char, std::char_traits<char>, std::allocator<char> >, std::__cxx11::basic_string<char, std::char_traits<char>, std::allocator<char> > >::_Maybe_unary_or_binary_function()
PUBLIC 3f5ac 0 std::_Maybe_unary_or_binary_function<void>::_Maybe_unary_or_binary_function()
PUBLIC 3f5b7 0 int QAtomicOps<int>::load<int>(std::atomic<int> const&)
PUBLIC 3f5ed 0 bool QAtomicOps<int>::deref<int>(std::atomic<int>&)
PUBLIC 3f60c 0 std::__cxx11::basic_string<char, std::char_traits<char>, std::allocator<char> >&& std::forward<std::__cxx11::basic_string<char, std::char_traits<char>, std::allocator<char> > >(std::remove_reference<std::__cxx11::basic_string<char, std::char_traits<char>, std::allocator<char> > >::type&)
PUBLIC 3f61a 0 std::__atomic_base<int>::operator--()
PUBLIC 3f63a 0 std::type_info const*& std::_Any_data::_M_access<std::type_info const*>()
PUBLIC 3f654 0 WidgetTracker::~WidgetTracker()
PUBLIC 3f6a6 0 WidgetTracker::~WidgetTracker()
PUBLIC 3f6cc 0 QList<QWidget*>::~QList()
PUBLIC 3f714 0 QListSpecialMethods<QWidget*>::~QListSpecialMethods()
PUBLIC 3f720 0 QList<QWidget*>::dealloc(QListData::Data*)
PUBLIC 3f77e 0 QList<QWidget*>::node_destruct(QList<QWidget*>::Node*, QList<QWidget*>::Node*)
PUBLIC 3f792 0 CrashingWidget::CrashingWidget(std::function<void (std::__cxx11::basic_string<char, std::char_traits<char>, std::allocator<char> >, std::__cxx11::basic_string<char, std::char_traits<char>, std::allocator<char> >)>, std::function<void ()>, QWidget*)
PUBLIC 3f8ae 0 CrashingWidget::~CrashingWidget()
PUBLIC 3f935 0 non-virtual thunk to CrashingWidget::~CrashingWidget()
PUBLIC 3f93e 0 CrashingWidget::~CrashingWidget()
PUBLIC 3f964 0 non-virtual thunk to CrashingWidget::~CrashingWidget()
PUBLIC 3f96a 0 CrashingWidget::on_exceptionButton_clicked()
PUBLIC 3f9f4 0 CrashingWidget::on_segfaultButton_clicked()
PUBLIC 3fa54 0 CrashingWidget::on_statsButton_clicked()
PUBLIC 3fbd2 0 CrashingWidget::on_downloadButton_clicked()
PUBLIC 3fce2 0 CrashingWidget::on_uploadButton_clicked()
PUBLIC 3fd02 0 std::exception::exception()
PUBLIC 3fd20 0 QArrayData::data()
PUBLIC 3fd3c 0 QByteArray::~QByteArray()
PUBLIC 3fd70 0 QByteArray::constData() const
PUBLIC 3fd8e 0 QString::toUtf8() &&
PUBLIC 3fdb8 0 QString::QString(QStringDataPtr)
PUBLIC 3fdd2 0 QString::isEmpty() const
PUBLIC 3fdec 0 QString::~QString()
PUBLIC 3fe20 0 QSize::QSize(int, int)
PUBLIC 3fe44 0 QRect::QRect(int, int, int, int)
PUBLIC 3fe94 0 QFlags<Qt::WindowType>::QFlags(int QFlags<Qt::WindowType>::Private::*)
PUBLIC 3feae 0 QWidget::resize(int, int)
PUBLIC 3feea 0 std::_Function_base::_M_empty() const
PUBLIC 3ff02 0 std::exception::exception(std::exception const&)
PUBLIC 3ff24 0 QException::QException(QException const&)
PUBLIC 3ff5c 0 TestException::TestException(TestException const&)
PUBLIC 3ff94 0 TestException::raise() const
PUBLIC 3ffda 0 TestException::clone() const
PUBLIC 4000e 0 Ui_CrashingWidget::setupUi(QMainWindow*)::{lambda()#1}::operator()() const
PUBLIC 4004c 0 Ui_CrashingWidget::setupUi(QMainWindow*)::{lambda()#1}::_FUN()
PUBLIC 40070 0 Ui_CrashingWidget::setupUi(QMainWindow*)::{lambda()#2}::operator()() const
PUBLIC 400ae 0 Ui_CrashingWidget::setupUi(QMainWindow*)::{lambda()#2}::_FUN()
PUBLIC 400d2 0 Ui_CrashingWidget::setupUi(QMainWindow*)::{lambda()#3}::operator()() const
PUBLIC 40110 0 Ui_CrashingWidget::setupUi(QMainWindow*)::{lambda()#3}::_FUN()
PUBLIC 40134 0 Ui_CrashingWidget::setupUi(QMainWindow*)::{lambda()#4}::operator()() const
PUBLIC 40172 0 Ui_CrashingWidget::setupUi(QMainWindow*)::{lambda()#4}::_FUN()
PUBLIC 40196 0 Ui_CrashingWidget::setupUi(QMainWindow*)::{lambda()#5}::operator()() const
PUBLIC 401d4 0 Ui_CrashingWidget::setupUi(QMainWindow*)::{lambda()#5}::_FUN()
PUBLIC 401f8 0 Ui_CrashingWidget::setupUi(QMainWindow*)::{lambda()#6}::operator()() const
PUBLIC 40236 0 Ui_CrashingWidget::setupUi(QMainWindow*)::{lambda()#6}::_FUN()
PUBLIC 4025a 0 Ui_CrashingWidget::setupUi(QMainWindow*)::{lambda()#7}::operator()() const
PUBLIC 40298 0 Ui_CrashingWidget::setupUi(QMainWindow*)::{lambda()#7}::_FUN()
PUBLIC 402bc 0 Ui_CrashingWidget::setupUi(QMainWindow*)::{lambda()#8}::operator()() const
PUBLIC 402fa 0 Ui_CrashingWidget::setupUi(QMainWindow*)::{lambda()#8}::_FUN()
PUBLIC 4031e 0 Ui_CrashingWidget::setupUi(QMainWindow*)::{lambda()#9}::operator()() const
PUBLIC 4035c 0 Ui_CrashingWidget::setupUi(QMainWindow*)::{lambda()#9}::_FUN()
PUBLIC 40380 0 Ui_CrashingWidget::setupUi(QMainWindow*)::{lambda()#10}::operator()() const
PUBLIC 403be 0 Ui_CrashingWidget::setupUi(QMainWindow*)::{lambda()#10}::_FUN()
PUBLIC 403e2 0 Ui_CrashingWidget::setupUi(QMainWindow*)::{lambda()#11}::operator()() const
PUBLIC 40420 0 Ui_CrashingWidget::setupUi(QMainWindow*)::{lambda()#11}::_FUN()
PUBLIC 40444 0 Ui_CrashingWidget::setupUi(QMainWindow*)::{lambda()#12}::operator()() const
PUBLIC 40482 0 Ui_CrashingWidget::setupUi(QMainWindow*)::{lambda()#12}::_FUN()
PUBLIC 404a6 0 Ui_CrashingWidget::setupUi(QMainWindow*)::{lambda()#13}::operator()() const
PUBLIC 404e4 0 Ui_CrashingWidget::setupUi(QMainWindow*)::{lambda()#13}::_FUN()
PUBLIC 40508 0 Ui_CrashingWidget::setupUi(QMainWindow*)::{lambda()#14}::operator()() const
PUBLIC 40546 0 Ui_CrashingWidget::setupUi(QMainWindow*)::{lambda()#14}::_FUN()
PUBLIC 4056a 0 Ui_CrashingWidget::setupUi(QMainWindow*)::{lambda()#15}::operator()() const
PUBLIC 405a8 0 Ui_CrashingWidget::setupUi(QMainWindow*)::{lambda()#15}::_FUN()
PUBLIC 405cc 0 Ui_CrashingWidget::setupUi(QMainWindow*)::{lambda()#16}::operator()() const
PUBLIC 4060a 0 Ui_CrashingWidget::setupUi(QMainWindow*)::{lambda()#16}::_FUN()
PUBLIC 4062e 0 Ui_CrashingWidget::setupUi(QMainWindow*)
PUBLIC 414d4 0 Ui_CrashingWidget::retranslateUi(QMainWindow*)
PUBLIC 41924 0 QException::QException()
PUBLIC 41952 0 TestException::TestException()
PUBLIC 4197f 0 QTypedArrayData<char>::deallocate(QArrayData*)
PUBLIC 419a4 0 QTypedArrayData<char>::data()
PUBLIC 419be 0 QTypedArrayData<unsigned short>::deallocate(QArrayData*)
PUBLIC 419e4 0 QStaticStringData<14>::data_ptr() const
PUBLIC 419f2 0 QStaticStringData<13>::data_ptr() const
PUBLIC 41a00 0 QStaticStringData<8>::data_ptr() const
PUBLIC 41a0e 0 QStaticStringData<11>::data_ptr() const
PUBLIC 41a1c 0 QStaticStringData<12>::data_ptr() const
PUBLIC 41a2a 0 QStaticStringData<15>::data_ptr() const
PUBLIC 41a38 0 QStaticStringData<5>::data_ptr() const
PUBLIC 41a46 0 QStaticStringData<7>::data_ptr() const
PUBLIC 41a54 0 QStaticStringData<3>::data_ptr() const
PUBLIC 41a62 0 QStaticStringData<17>::data_ptr() const
PUBLIC 41a70 0 QStaticStringData<9>::data_ptr() const
PUBLIC 41a7e 0 std::function<void (std::__cxx11::basic_string<char, std::char_traits<char>, std::allocator<char> >, std::__cxx11::basic_string<char, std::char_traits<char>, std::allocator<char> >)>::function(std::function<void (std::__cxx11::basic_string<char, std::char_traits<char>, std::allocator<char> >, std::__cxx11::basic_string<char, std::char_traits<char>, std::allocator<char> >)> const&)
PUBLIC 41b16 0 std::function<void ()>::function()
PUBLIC 41b3e 0 std::function<void ()>::operator=(std::function<void ()> const&)
PUBLIC 41b86 0 std::function<void (std::__cxx11::basic_string<char, std::char_traits<char>, std::allocator<char> >, std::__cxx11::basic_string<char, std::char_traits<char>, std::allocator<char> >)>::operator()(std::__cxx11::basic_string<char, std::char_traits<char>, std::allocator<char> >, std::__cxx11::basic_string<char, std::char_traits<char>, std::allocator<char> >) const
PUBLIC 41bf0 0 std::function<void ()>::operator()() const
PUBLIC 41c24 0 std::function<void (std::__cxx11::basic_string<char, std::char_traits<char>, std::allocator<char> >, std::__cxx11::basic_string<char, std::char_traits<char>, std::allocator<char> >)>::operator bool() const
PUBLIC 41c42 0 std::function<void ()>::function(std::function<void ()> const&)
PUBLIC 41cda 0 std::function<void ()>::swap(std::function<void ()>&)
PUBLIC 41d36 0 std::function<void ()>::operator bool() const
PUBLIC 41d53 0 std::remove_reference<std::_Any_data&>::type&& std::move<std::_Any_data&>(std::_Any_data&)
PUBLIC 41d61 0 void std::swap<std::_Any_data>(std::_Any_data&, std::_Any_data&)
PUBLIC 41dcb 0 std::remove_reference<bool (*&)(std::_Any_data&, std::_Any_data const&, std::_Manager_operation)>::type&& std::move<bool (*&)(std::_Any_data&, std::_Any_data const&, std::_Manager_operation)>(bool (*&)(std::_Any_data&, std::_Any_data const&, std::_Manager_operation))
PUBLIC 41dd9 0 void std::swap<bool (*)(std::_Any_data&, std::_Any_data const&, std::_Manager_operation)>(bool (*&)(std::_Any_data&, std::_Any_data const&, std::_Manager_operation), bool (*&)(std::_Any_data&, std::_Any_data const&, std::_Manager_operation))
PUBLIC 41e2b 0 std::remove_reference<void (*&)(std::_Any_data const&)>::type&& std::move<void (*&)(std::_Any_data const&)>(void (*&)(std::_Any_data const&))
PUBLIC 41e39 0 void std::swap<void (*)(std::_Any_data const&)>(void (*&)(std::_Any_data const&), void (*&)(std::_Any_data const&))
PUBLIC 41e8c 0 TestException::~TestException()
PUBLIC 41ece 0 TestException::~TestException()
PUBLIC 41ef4 0 CrashingWidget::qt_static_metacall(QObject*, QMetaObject::Call, int, void**)
PUBLIC 41f8a 0 CrashingWidget::metaObject() const
PUBLIC 41fd2 0 CrashingWidget::qt_metacast(char const*)
PUBLIC 42022 0 CrashingWidget::qt_metacall(QMetaObject::Call, int, void**)
PUBLIC 420a6 0 QScopedPointer<QObjectData, QScopedPointerDeleter<QObjectData> >::operator->() const
PUBLIC 420b8 0 WidgetTracker::WidgetTracker(QApplication*)
PUBLIC 42192 0 WidgetTracker::printProperties(QObject*)
PUBLIC 426d8 0 WidgetTracker::printGeometry(QObject*)
PUBLIC 42d66 0 WidgetTracker::printType(QObject*)
PUBLIC 42f62 0 WidgetTracker::updateObject(QObject*)
PUBLIC 42fae 0 WidgetTracker::removeObject(QObject*)
PUBLIC 43118 0 WidgetTracker::updateObjectSubtree(QObject*)
PUBLIC 4322c 0 WidgetTracker::updateAllWidgets()
PUBLIC 432b8 0 WidgetTracker::eventLoopStartedSlot()
PUBLIC 43358 0 WidgetTracker::removeObjectFromListSlot(QObject*)
PUBLIC 433ba 0 WidgetTracker::eventFilter(QObject*, QEvent*)
PUBLIC 43680 0 QMessageLogContext::QMessageLogContext(char const*, int, char const*, char const*)
PUBLIC 436d2 0 QMessageLogger::QMessageLogger(char const*, int, char const*)
PUBLIC 4370a 0 QFlag::QFlag(unsigned int)
PUBLIC 43722 0 QFlag::operator unsigned int() const
PUBLIC 43732 0 QFlags<Qt::WindowType>::QFlags(QFlag)
PUBLIC 43758 0 QtPrivate::RefCount::isShared() const
PUBLIC 4378d 0 QArrayData::sharedNull()
PUBLIC 4379a 0 QListData::dispose()
PUBLIC 437b8 0 QListData::size() const
PUBLIC 437da 0 QListData::at(int) const
PUBLIC 4380e 0 QListData::begin() const
PUBLIC 43836 0 QListData::end() const
PUBLIC 4385e 0 QString::size() const
PUBLIC 43872 0 QString::fromUtf8(char const*, int)
PUBLIC 438bc 0 QString::QString(char const*)
PUBLIC 43904 0 QString::length() const
PUBLIC 43918 0 QString::constData() const
PUBLIC 43936 0 QString::QString()
PUBLIC 43954 0 int const& qMax<int>(int const&, int const&)
PUBLIC 4397c 0 QString::operator==(char const*) const
PUBLIC 439d0 0 QString::operator!=(char const*) const
PUBLIC 43a24 0 QDebug::nospace()
PUBLIC 43a3e 0 QDebug::maybeSpace()
PUBLIC 43a74 0 QDebug::operator<<(int)
PUBLIC 43aa8 0 QDebug::operator<<(char const*)
PUBLIC 43b26 0 QDebug::operator<<(QString const&)
PUBLIC 43b7a 0 QEvent::type() const
PUBLIC 43b90 0 QChildEvent::child() const
PUBLIC 43ba2 0 QPoint::QPoint(int, int)
PUBLIC 43bc6 0 QPoint::x() const
PUBLIC 43bd6 0 QPoint::y() const
PUBLIC 43be8 0 QRect::left() const
PUBLIC 43bf8 0 QRect::top() const
PUBLIC 43c0a 0 QRect::right() const
PUBLIC 43c1c 0 QRect::bottom() const
PUBLIC 43c2e 0 QRect::moveLeft(int)
PUBLIC 43c62 0 QRect::moveTop(int)
PUBLIC 43c98 0 QRect::moveTopLeft(QPoint const&)
PUBLIC 43ce4 0 QFlags<Qt::WindowType>::operator&(Qt::WindowType) const
PUBLIC 43d22 0 QFlags<Qt::WindowType>::operator unsigned int() const
PUBLIC 43d32 0 QWidget::windowType() const
PUBLIC 43d68 0 QWidget::isWindow() const
PUBLIC 43d8a 0 QWidget::geometry() const
PUBLIC 43da0 0 QFlags<Qt::FindChildOption>::QFlags(Qt::FindChildOption)
PUBLIC 43db7 0 QTypedArrayData<unsigned short>::sharedNull()
PUBLIC 43dc2 0 QTypedArrayData<unsigned short>::data()
PUBLIC 43ddc 0 QListSpecialMethods<QWidget*>::QListSpecialMethods()
PUBLIC 43de8 0 QList<QWidget*>::QList()
PUBLIC 43e11 0 bool std::operator==<char, std::char_traits<char>, std::allocator<char> >(std::__cxx11::basic_string<char, std::char_traits<char>, std::allocator<char> > const&, char const*)
PUBLIC 43e3b 0 bool std::operator!=<char, std::char_traits<char>, std::allocator<char> >(std::__cxx11::basic_string<char, std::char_traits<char>, std::allocator<char> > const&, char const*)
PUBLIC 43e64 0 QList<QWidget*> QObject::findChildren<QWidget*>(QString const&, QFlags<Qt::FindChildOption>) const
PUBLIC 43ed4 0 QList<QWidget*>::begin()
PUBLIC 43f14 0 QList<QWidget*>::end()
PUBLIC 43f54 0 QList<QWidget*>::iterator::operator!=(QList<QWidget*>::iterator const&) const
PUBLIC 43f76 0 QList<QWidget*>::iterator::operator++()
PUBLIC 43f96 0 QList<QWidget*>::iterator::operator*() const
PUBLIC 43fb4 0 QList<QWidget*>::removeAll(QWidget* const&)
PUBLIC 440d2 0 QList<QWidget*>::push_back(QWidget* const&)
PUBLIC 440f8 0 QList<QWidget*>::detach()
PUBLIC 44126 0 QList<QWidget*>::iterator::iterator(QList<QWidget*>::Node*)
PUBLIC 44140 0 QList<QWidget*>::Node::t()
PUBLIC 4414e 0 QList<QWidget*>::indexOf(QWidget* const&, int) const
PUBLIC 44238 0 QList<QWidget*>::node_destruct(QList<QWidget*>::Node*)
PUBLIC 44248 0 QList<QWidget*>::append(QWidget* const&)
PUBLIC 44340 0 QList<QWidget*>::detach_helper()
PUBLIC 44368 0 QList<QWidget*>::detach_helper_grow(int, int)
PUBLIC 4453e 0 QList<QWidget*>::node_construct(QList<QWidget*>::Node*, QWidget* const&)
PUBLIC 44560 0 QList<QWidget*>::detach_helper(int)
PUBLIC 44630 0 QList<QWidget*>::node_copy(QList<QWidget*>::Node*, QList<QWidget*>::Node*, QList<QWidget*>::Node*)
PUBLIC 4469e 0 WidgetTracker::qt_static_metacall(QObject*, QMetaObject::Call, int, void**)
PUBLIC 4476c 0 WidgetTracker::metaObject() const
PUBLIC 447b4 0 WidgetTracker::qt_metacast(char const*)
PUBLIC 44804 0 WidgetTracker::qt_metacall(QMetaObject::Call, int, void**)
PUBLIC 44888 0 WidgetTracker::eventLoopStartedSignal()
PUBLIC 448b4 0 crashup::Crashup::Crashup(std::__cxx11::basic_string<char, std::char_traits<char>, std::allocator<char> >, std::__cxx11::basic_string<char, std::char_traits<char>, std::allocator<char> >)
PUBLIC 44a58 0 crashup::Crashup::setAppName(std::__cxx11::basic_string<char, std::char_traits<char>, std::allocator<char> > const&)
PUBLIC 44a82 0 crashup::Crashup::setAppVersion(std::__cxx11::basic_string<char, std::char_traits<char>, std::allocator<char> > const&)
PUBLIC 44aac 0 crashup::Crashup::setAppPlatform(std::__cxx11::basic_string<char, std::char_traits<char>, std::allocator<char> > const&)
PUBLIC 44ada 0 crashup::Crashup::makeInternalDirPath(std::__cxx11::basic_string<char, std::char_traits<char>, std::allocator<char> > const&)
PUBLIC 44f64 0 crashup::Crashup::initCrashHandler()
PUBLIC 4504a 0 crashup::Crashup::writeMinidump()
PUBLIC 450d6 0 crashup::Crashup::initCrashUploader()
PUBLIC 4533a 0 crashup::Crashup::uploadPendingMinidumps()
PUBLIC 453c6 0 crashup::Crashup::sendUsageReport(std::__cxx11::basic_string<char, std::char_traits<char>, std::allocator<char> > const&, std::__cxx11::basic_string<char, std::char_traits<char>, std::allocator<char> > const&)
PUBLIC 455dd 0 __static_initialization_and_destruction_0(int, int)
PUBLIC 45626 0 _GLOBAL__sub_I_Crashup.cpp
PUBLIC 4563b 0 std::char_traits<char>::length(char const*)
PUBLIC 45667 0 operator delete(void*, void*)
PUBLIC 45676 0 QByteArray::size() const
PUBLIC 4568a 0 QString::fromStdString(std::__cxx11::basic_string<char, std::char_traits<char>, std::allocator<char> > const&)
PUBLIC 456d4 0 QFlags<QUrl::ComponentFormattingOption>::QFlags(QUrl::ComponentFormattingOption)
PUBLIC 456ec 0 QUrlQuery::toString(QFlags<QUrl::ComponentFormattingOption>) const
PUBLIC 4571c 0 Stats::send(std::map<std::__cxx11::basic_string<char, std::char_traits<char>, std::allocator<char> >, std::__cxx11::basic_string<char, std::char_traits<char>, std::allocator<char> >, std::less<std::__cxx11::basic_string<char, std::char_traits<char>, std::allocator<char> > >, std::allocator<std::pair<std::__cxx11::basic_string<char, std::char_traits<char>, std::allocator<char> > const, std::__cxx11::basic_string<char, std::char_traits<char>, std::allocator<char> > > > > const&)
PUBLIC 45c30 0 CrashupInitializationException::CrashupInitializationException(char const*)
PUBLIC 45c68 0 char const (&std::forward<char const (&) [11]>(std::remove_reference<char const (&) [11]>::type&)) [11]
PUBLIC 45c76 0 std::pair<std::__cxx11::basic_string<char, std::char_traits<char>, std::allocator<char> > const, std::__cxx11::basic_string<char, std::char_traits<char>, std::allocator<char> > >::pair<char const (&) [11], void>(char const (&) [11], std::__cxx11::basic_string<char, std::char_traits<char>, std::allocator<char> > const&)
PUBLIC 45d1a 0 std::pair<std::__cxx11::basic_string<char, std::char_traits<char>, std::allocator<char> > const, std::__cxx11::basic_string<char, std::char_traits<char>, std::allocator<char> > >::~pair()
PUBLIC 45d45 0 char const (&std::forward<char const (&) [9]>(std::remove_reference<char const (&) [9]>::type&)) [9]
PUBLIC 45d53 0 std::__cxx11::basic_string<char, std::char_traits<char>, std::allocator<char> >& std::forward<std::__cxx11::basic_string<char, std::char_traits<char>, std::allocator<char> >&>(std::remove_reference<std::__cxx11::basic_string<char, std::char_traits<char>, std::allocator<char> >&>::type&)
PUBLIC 45d62 0 std::pair<std::__cxx11::basic_string<char, std::char_traits<char>, std::allocator<char> > const, std::__cxx11::basic_string<char, std::char_traits<char>, std::allocator<char> > >::pair<char const (&) [9], std::__cxx11::basic_string<char, std::char_traits<char>, std::allocator<char> >&, void>(char const (&) [9], std::__cxx11::basic_string<char, std::char_traits<char>, std::allocator<char> >&)
PUBLIC 45e10 0 char const (&std::forward<char const (&) [12]>(std::remove_reference<char const (&) [12]>::type&)) [12]
PUBLIC 45e1e 0 std::pair<std::__cxx11::basic_string<char, std::char_traits<char>, std::allocator<char> > const, std::__cxx11::basic_string<char, std::char_traits<char>, std::allocator<char> > >::pair<char const (&) [12], std::__cxx11::basic_string<char, std::char_traits<char>, std::allocator<char> >&, void>(char const (&) [12], std::__cxx11::basic_string<char, std::char_traits<char>, std::allocator<char> >&)
PUBLIC 45ecc 0 char const (&std::forward<char const (&) [13]>(std::remove_reference<char const (&) [13]>::type&)) [13]
PUBLIC 45eda 0 std::pair<std::__cxx11::basic_string<char, std::char_traits<char>, std::allocator<char> > const, std::__cxx11::basic_string<char, std::char_traits<char>, std::allocator<char> > >::pair<char const (&) [13], std::__cxx11::basic_string<char, std::char_traits<char>, std::allocator<char> >&, void>(char const (&) [13], std::__cxx11::basic_string<char, std::char_traits<char>, std::allocator<char> >&)
PUBLIC 45f88 0 char const (&std::forward<char const (&) [20]>(std::remove_reference<char const (&) [20]>::type&)) [20]
PUBLIC 45f96 0 std::pair<std::__cxx11::basic_string<char, std::char_traits<char>, std::allocator<char> > const, std::__cxx11::basic_string<char, std::char_traits<char>, std::allocator<char> > >::pair<char const (&) [12], char const (&) [20], void>(char const (&) [12], char const (&) [20])
PUBLIC 4606c 0 std::map<std::__cxx11::basic_string<char, std::char_traits<char>, std::allocator<char> >, std::__cxx11::basic_string<char, std::char_traits<char>, std::allocator<char> >, std::less<std::__cxx11::basic_string<char, std::char_traits<char>, std::allocator<char> > >, std::allocator<std::pair<std::__cxx11::basic_string<char, std::char_traits<char>, std::allocator<char> > const, std::__cxx11::basic_string<char, std::char_traits<char>, std::allocator<char> > > > >::~map()
PUBLIC 46087 0 std::__cxx11::basic_string<char, std::char_traits<char>, std::allocator<char> > std::operator+<char, std::char_traits<char>, std::allocator<char> >(std::__cxx11::basic_string<char, std::char_traits<char>, std::allocator<char> > const&, char const*)
PUBLIC 460e9 0 std::remove_reference<std::__cxx11::basic_string<char, std::char_traits<char>, std::allocator<char> >&>::type&& std::move<std::__cxx11::basic_string<char, std::char_traits<char>, std::allocator<char> >&>(std::__cxx11::basic_string<char, std::char_traits<char>, std::allocator<char> >&)
PUBLIC 460f8 0 std::map<std::__cxx11::basic_string<char, std::char_traits<char>, std::allocator<char> >, std::__cxx11::basic_string<char, std::char_traits<char>, std::allocator<char> >, std::less<std::__cxx11::basic_string<char, std::char_traits<char>, std::allocator<char> > >, std::allocator<std::pair<std::__cxx11::basic_string<char, std::char_traits<char>, std::allocator<char> > const, std::__cxx11::basic_string<char, std::char_traits<char>, std::allocator<char> > > > >::begin() const
PUBLIC 46112 0 std::map<std::__cxx11::basic_string<char, std::char_traits<char>, std::allocator<char> >, std::__cxx11::basic_string<char, std::char_traits<char>, std::allocator<char> >, std::less<std::__cxx11::basic_string<char, std::char_traits<char>, std::allocator<char> > >, std::allocator<std::pair<std::__cxx11::basic_string<char, std::char_traits<char>, std::allocator<char> > const, std::__cxx11::basic_string<char, std::char_traits<char>, std::allocator<char> > > > >::end() const
PUBLIC 4612c 0 std::_Rb_tree_const_iterator<std::pair<std::__cxx11::basic_string<char, std::char_traits<char>, std::allocator<char> > const, std::__cxx11::basic_string<char, std::char_traits<char>, std::allocator<char> > > >::operator!=(std::_Rb_tree_const_iterator<std::pair<std::__cxx11::basic_string<char, std::char_traits<char>, std::allocator<char> > const, std::__cxx11::basic_string<char, std::char_traits<char>, std::allocator<char> > > > const&) const
PUBLIC 4614e 0 std::_Rb_tree_const_iterator<std::pair<std::__cxx11::basic_string<char, std::char_traits<char>, std::allocator<char> > const, std::__cxx11::basic_string<char, std::char_traits<char>, std::allocator<char> > > >::operator++()
PUBLIC 4617a 0 std::_Rb_tree_const_iterator<std::pair<std::__cxx11::basic_string<char, std::char_traits<char>, std::allocator<char> > const, std::__cxx11::basic_string<char, std::char_traits<char>, std::allocator<char> > > >::operator*() const
PUBLIC 46197 0 std::__cxx11::basic_string<char, std::char_traits<char>, std::allocator<char> > std::operator+<char, std::char_traits<char>, std::allocator<char> >(char const*, std::__cxx11::basic_string<char, std::char_traits<char>, std::allocator<char> > const&)
PUBLIC 4623e 0 std::__cxx11::basic_string<char, std::char_traits<char>, std::allocator<char> > std::operator+<char, std::char_traits<char>, std::allocator<char> >(std::__cxx11::basic_string<char, std::char_traits<char>, std::allocator<char> >&&, char const*)
PUBLIC 46286 0 std::allocator<std::pair<std::__cxx11::basic_string<char, std::char_traits<char>, std::allocator<char> > const, std::__cxx11::basic_string<char, std::char_traits<char>, std::allocator<char> > > >::allocator()
PUBLIC 462a2 0 std::allocator<std::pair<std::__cxx11::basic_string<char, std::char_traits<char>, std::allocator<char> > const, std::__cxx11::basic_string<char, std::char_traits<char>, std::allocator<char> > > >::~allocator()
PUBLIC 462be 0 std::initializer_list<std::pair<std::__cxx11::basic_string<char, std::char_traits<char>, std::allocator<char> > const, std::__cxx11::basic_string<char, std::char_traits<char>, std::allocator<char> > > >::begin() const
PUBLIC 462d0 0 std::initializer_list<std::pair<std::__cxx11::basic_string<char, std::char_traits<char>, std::allocator<char> > const, std::__cxx11::basic_string<char, std::char_traits<char>, std::allocator<char> > > >::size() const
PUBLIC 462e2 0 std::initializer_list<std::pair<std::__cxx11::basic_string<char, std::char_traits<char>, std::allocator<char> > const, std::__cxx11::basic_string<char, std::char_traits<char>, std::allocator<char> > > >::end() const
PUBLIC 46318 0 std::map<std::__cxx11::basic_string<char, std::char_traits<char>, std::allocator<char> >, std::__cxx11::basic_string<char, std::char_traits<char>, std::allocator<char> >, std::less<std::__cxx11::basic_string<char, std::char_traits<char>, std::allocator<char> > >, std::allocator<std::pair<std::__cxx11::basic_string<char, std::char_traits<char>, std::allocator<char> > const, std::__cxx11::basic_string<char, std::char_traits<char>, std::allocator<char> > > > >::map(std::initializer_list<std::pair<std::__cxx11::basic_string<char, std::char_traits<char>, std::allocator<char> > const, std::__cxx11::basic_string<char, std::char_traits<char>, std::allocator<char> > > >, std::less<std::__cxx11::basic_string<char, std::char_traits<char>, std::allocator<char> > > const&, std::allocator<std::pair<std::__cxx11::basic_string<char, std::char_traits<char>, std::allocator<char> > const, std::__cxx11::basic_string<char, std::char_traits<char>, std::allocator<char> > > > const&)
PUBLIC 463e2 0 std::_Rb_tree<std::__cxx11::basic_string<char, std::char_traits<char>, std::allocator<char> >, std::pair<std::__cxx11::basic_string<char, std::char_traits<char>, std::allocator<char> > const, std::__cxx11::basic_string<char, std::char_traits<char>, std::allocator<char> > >, std::_Select1st<std::pair<std::__cxx11::basic_string<char, std::char_traits<char>, std::allocator<char> > const, std::__cxx11::basic_string<char, std::char_traits<char>, std::allocator<char> > > >, std::less<std::__cxx11::basic_string<char, std::char_traits<char>, std::allocator<char> > >, std::allocator<std::pair<std::__cxx11::basic_string<char, std::char_traits<char>, std::allocator<char> > const, std::__cxx11::basic_string<char, std::char_traits<char>, std::allocator<char> > > > >::_Rb_tree_impl<std::less<std::__cxx11::basic_string<char, std::char_traits<char>, std::allocator<char> > >, true>::~_Rb_tree_impl()
PUBLIC 463fe 0 std::_Rb_tree<std::__cxx11::basic_string<char, std::char_traits<char>, std::allocator<char> >, std::pair<std::__cxx11::basic_string<char, std::char_traits<char>, std::allocator<char> > const, std::__cxx11::basic_string<char, std::char_traits<char>, std::allocator<char> > >, std::_Select1st<std::pair<std::__cxx11::basic_string<char, std::char_traits<char>, std::allocator<char> > const, std::__cxx11::basic_string<char, std::char_traits<char>, std::allocator<char> > > >, std::less<std::__cxx11::basic_string<char, std::char_traits<char>, std::allocator<char> > >, std::allocator<std::pair<std::__cxx11::basic_string<char, std::char_traits<char>, std::allocator<char> > const, std::__cxx11::basic_string<char, std::char_traits<char>, std::allocator<char> > > > >::~_Rb_tree()
PUBLIC 46438 0 std::_Rb_tree<std::__cxx11::basic_string<char, std::char_traits<char>, std::allocator<char> >, std::pair<std::__cxx11::basic_string<char, std::char_traits<char>, std::allocator<char> > const, std::__cxx11::basic_string<char, std::char_traits<char>, std::allocator<char> > >, std::_Select1st<std::pair<std::__cxx11::basic_string<char, std::char_traits<char>, std::allocator<char> > const, std::__cxx11::basic_string<char, std::char_traits<char>, std::allocator<char> > > >, std::less<std::__cxx11::basic_string<char, std::char_traits<char>, std::allocator<char> > >, std::allocator<std::pair<std::__cxx11::basic_string<char, std::char_traits<char>, std::allocator<char> > const, std::__cxx11::basic_string<char, std::char_traits<char>, std::allocator<char> > > > >::begin() const
PUBLIC 46462 0 std::_Rb_tree<std::__cxx11::basic_string<char, std::char_traits<char>, std::allocator<char> >, std::pair<std::__cxx11::basic_string<char, std::char_traits<char>, std::allocator<char> > const, std::__cxx11::basic_string<char, std::char_traits<char>, std::allocator<char> > >, std::_Select1st<std::pair<std::__cxx11::basic_string<char, std::char_traits<char>, std::allocator<char> > const, std::__cxx11::basic_string<char, std::char_traits<char>, std::allocator<char> > > >, std::less<std::__cxx11::basic_string<char, std::char_traits<char>, std::allocator<char> > >, std::allocator<std::pair<std::__cxx11::basic_string<char, std::char_traits<char>, std::allocator<char> > const, std::__cxx11::basic_string<char, std::char_traits<char>, std::allocator<char> > > > >::end() const
PUBLIC 4648c 0 std::_Rb_tree_node<std::pair<std::__cxx11::basic_string<char, std::char_traits<char>, std::allocator<char> > const, std::__cxx11::basic_string<char, std::char_traits<char>, std::allocator<char> > > >::_M_valptr() const
PUBLIC 464aa 0 __gnu_cxx::new_allocator<std::pair<std::__cxx11::basic_string<char, std::char_traits<char>, std::allocator<char> > const, std::__cxx11::basic_string<char, std::char_traits<char>, std::allocator<char> > > >::new_allocator()
PUBLIC 464b6 0 __gnu_cxx::new_allocator<std::pair<std::__cxx11::basic_string<char, std::char_traits<char>, std::allocator<char> > const, std::__cxx11::basic_string<char, std::char_traits<char>, std::allocator<char> > > >::~new_allocator()
PUBLIC 464c2 0 std::allocator<std::pair<std::__cxx11::basic_string<char, std::char_traits<char>, std::allocator<char> > const, std::__cxx11::basic_string<char, std::char_traits<char>, std::allocator<char> > > >::allocator(std::allocator<std::pair<std::__cxx11::basic_string<char, std::char_traits<char>, std::allocator<char> > const, std::__cxx11::basic_string<char, std::char_traits<char>, std::allocator<char> > > > const&)
PUBLIC 464e8 0 std::_Rb_tree<std::__cxx11::basic_string<char, std::char_traits<char>, std::allocator<char> >, std::pair<std::__cxx11::basic_string<char, std::char_traits<char>, std::allocator<char> > const, std::__cxx11::basic_string<char, std::char_traits<char>, std::allocator<char> > >, std::_Select1st<std::pair<std::__cxx11::basic_string<char, std::char_traits<char>, std::allocator<char> > const, std::__cxx11::basic_string<char, std::char_traits<char>, std::allocator<char> > > >, std::less<std::__cxx11::basic_string<char, std::char_traits<char>, std::allocator<char> > >, std::allocator<std::pair<std::__cxx11::basic_string<char, std::char_traits<char>, std::allocator<char> > const, std::__cxx11::basic_string<char, std::char_traits<char>, std::allocator<char> > > > >::_Rb_tree(std::less<std::__cxx11::basic_string<char, std::char_traits<char>, std::allocator<char> > > const&, std::allocator<std::pair<std::__cxx11::basic_string<char, std::char_traits<char>, std::allocator<char> > const, std::__cxx11::basic_string<char, std::char_traits<char>, std::allocator<char> > > > const&)
PUBLIC 46556 0 void std::_Rb_tree<std::__cxx11::basic_string<char, std::char_traits<char>, std::allocator<char> >, std::pair<std::__cxx11::basic_string<char, std::char_traits<char>, std::allocator<char> > const, std::__cxx11::basic_string<char, std::char_traits<char>, std::allocator<char> > >, std::_Select1st<std::pair<std::__cxx11::basic_string<char, std::char_traits<char>, std::allocator<char> > const, std::__cxx11::basic_string<char, std::char_traits<char>, std::allocator<char> > > >, std::less<std::__cxx11::basic_string<char, std::char_traits<char>, std::allocator<char> > >, std::allocator<std::pair<std::__cxx11::basic_string<char, std::char_traits<char>, std::allocator<char> > const, std::__cxx11::basic_string<char, std::char_traits<char>, std::allocator<char> > > > >::_M_insert_unique<std::pair<std::__cxx11::basic_string<char, std::char_traits<char>, std::allocator<char> > const, std::__cxx11::basic_string<char, std::char_traits<char>, std::allocator<char> > > const*>(std::pair<std::__cxx11::basic_string<char, std::char_traits<char>, std::allocator<char> > const, std::__cxx11::basic_string<char, std::char_traits<char>, std::allocator<char> > > const*, std::pair<std::__cxx11::basic_string<char, std::char_traits<char>, std::allocator<char> > const, std::__cxx11::basic_string<char, std::char_traits<char>, std::allocator<char> > > const*)
PUBLIC 465cc 0 std::allocator<std::_Rb_tree_node<std::pair<std::__cxx11::basic_string<char, std::char_traits<char>, std::allocator<char> > const, std::__cxx11::basic_string<char, std::char_traits<char>, std::allocator<char> > > > >::~allocator()
PUBLIC 465e8 0 std::_Rb_tree<std::__cxx11::basic_string<char, std::char_traits<char>, std::allocator<char> >, std::pair<std::__cxx11::basic_string<char, std::char_traits<char>, std::allocator<char> > const, std::__cxx11::basic_string<char, std::char_traits<char>, std::allocator<char> > >, std::_Select1st<std::pair<std::__cxx11::basic_string<char, std::char_traits<char>, std::allocator<char> > const, std::__cxx11::basic_string<char, std::char_traits<char>, std::allocator<char> > > >, std::less<std::__cxx11::basic_string<char, std::char_traits<char>, std::allocator<char> > >, std::allocator<std::pair<std::__cxx11::basic_string<char, std::char_traits<char>, std::allocator<char> > const, std::__cxx11::basic_string<char, std::char_traits<char>, std::allocator<char> > > > >::_M_erase(std::_Rb_tree_node<std::pair<std::__cxx11::basic_string<char, std::char_traits<char>, std::allocator<char> > const, std::__cxx11::basic_string<char, std::char_traits<char>, std::allocator<char> > > >*)
PUBLIC 4664e 0 std::_Rb_tree<std::__cxx11::basic_string<char, std::char_traits<char>, std::allocator<char> >, std::pair<std::__cxx11::basic_string<char, std::char_traits<char>, std::allocator<char> > const, std::__cxx11::basic_string<char, std::char_traits<char>, std::allocator<char> > >, std::_Select1st<std::pair<std::__cxx11::basic_string<char, std::char_traits<char>, std::allocator<char> > const, std::__cxx11::basic_string<char, std::char_traits<char>, std::allocator<char> > > >, std::less<std::__cxx11::basic_string<char, std::char_traits<char>, std::allocator<char> > >, std::allocator<std::pair<std::__cxx11::basic_string<char, std::char_traits<char>, std::allocator<char> > const, std::__cxx11::basic_string<char, std::char_traits<char>, std::allocator<char> > > > >::_M_begin()
PUBLIC 46660 0 std::_Rb_tree_const_iterator<std::pair<std::__cxx11::basic_string<char, std::char_traits<char>, std::allocator<char> > const, std::__cxx11::basic_string<char, std::char_traits<char>, std::allocator<char> > > >::_Rb_tree_const_iterator(std::_Rb_tree_node_base const*)
PUBLIC 4667a 0 __gnu_cxx::__aligned_membuf<std::pair<std::__cxx11::basic_string<char, std::char_traits<char>, std::allocator<char> > const, std::__cxx11::basic_string<char, std::char_traits<char>, std::allocator<char> > > >::_M_ptr() const
PUBLIC 46694 0 __gnu_cxx::new_allocator<std::pair<std::__cxx11::basic_string<char, std::char_traits<char>, std::allocator<char> > const, std::__cxx11::basic_string<char, std::char_traits<char>, std::allocator<char> > > >::new_allocator(__gnu_cxx::new_allocator<std::pair<std::__cxx11::basic_string<char, std::char_traits<char>, std::allocator<char> > const, std::__cxx11::basic_string<char, std::char_traits<char>, std::allocator<char> > > > const&)
PUBLIC 466a4 0 std::allocator<std::_Rb_tree_node<std::pair<std::__cxx11::basic_string<char, std::char_traits<char>, std::allocator<char> > const, std::__cxx11::basic_string<char, std::char_traits<char>, std::allocator<char> > > > >::allocator<std::pair<std::__cxx11::basic_string<char, std::char_traits<char>, std::allocator<char> > const, std::__cxx11::basic_string<char, std::char_traits<char>, std::allocator<char> > > >(std::allocator<std::pair<std::__cxx11::basic_string<char, std::char_traits<char>, std::allocator<char> > const, std::__cxx11::basic_string<char, std::char_traits<char>, std::allocator<char> > > > const&)
PUBLIC 466c3 0 std::remove_reference<std::allocator<std::_Rb_tree_node<std::pair<std::__cxx11::basic_string<char, std::char_traits<char>, std::allocator<char> > const, std::__cxx11::basic_string<char, std::char_traits<char>, std::allocator<char> > > > >&>::type&& std::move<std::allocator<std::_Rb_tree_node<std::pair<std::__cxx11::basic_string<char, std::char_traits<char>, std::allocator<char> > const, std::__cxx11::basic_string<char, std::char_traits<char>, std::allocator<char> > > > >&>(std::allocator<std::_Rb_tree_node<std::pair<std::__cxx11::basic_string<char, std::char_traits<char>, std::allocator<char> > const, std::__cxx11::basic_string<char, std::char_traits<char>, std::allocator<char> > > > >&)
PUBLIC 466d2 0 std::_Rb_tree<std::__cxx11::basic_string<char, std::char_traits<char>, std::allocator<char> >, std::pair<std::__cxx11::basic_string<char, std::char_traits<char>, std::allocator<char> > const, std::__cxx11::basic_string<char, std::char_traits<char>, std::allocator<char> > >, std::_Select1st<std::pair<std::__cxx11::basic_string<char, std::char_traits<char>, std::allocator<char> > const, std::__cxx11::basic_string<char, std::char_traits<char>, std::allocator<char> > > >, std::less<std::__cxx11::basic_string<char, std::char_traits<char>, std::allocator<char> > >, std::allocator<std::pair<std::__cxx11::basic_string<char, std::char_traits<char>, std::allocator<char> > const, std::__cxx11::basic_string<char, std::char_traits<char>, std::allocator<char> > > > >::_Rb_tree_impl<std::less<std::__cxx11::basic_string<char, std::char_traits<char>, std::allocator<char> > >, true>::_Rb_tree_impl(std::less<std::__cxx11::basic_string<char, std::char_traits<char>, std::allocator<char> > > const&, std::allocator<std::_Rb_tree_node<std::pair<std::__cxx11::basic_string<char, std::char_traits<char>, std::allocator<char> > const, std::__cxx11::basic_string<char, std::char_traits<char>, std::allocator<char> > > > >&&)
PUBLIC 4674e 0 std::_Rb_tree<std::__cxx11::basic_string<char, std::char_traits<char>, std::allocator<char> >, std::pair<std::__cxx11::basic_string<char, std::char_traits<char>, std::allocator<char> > const, std::__cxx11::basic_string<char, std::char_traits<char>, std::allocator<char> > >, std::_Select1st<std::pair<std::__cxx11::basic_string<char, std::char_traits<char>, std::allocator<char> > const, std::__cxx11::basic_string<char, std::char_traits<char>, std::allocator<char> > > >, std::less<std::__cxx11::basic_string<char, std::char_traits<char>, std::allocator<char> > >, std::allocator<std::pair<std::__cxx11::basic_string<char, std::char_traits<char>, std::allocator<char> > const, std::__cxx11::basic_string<char, std::char_traits<char>, std::allocator<char> > > > >::_Alloc_node::_Alloc_node(std::_Rb_tree<std::__cxx11::basic_string<char, std::char_traits<char>, std::allocator<char> >, std::pair<std::__cxx11::basic_string<char, std::char_traits<char>, std::allocator<char> > const, std::__cxx11::basic_string<char, std::char_traits<char>, std::allocator<char> > >, std::_Select1st<std::pair<std::__cxx11::basic_string<char, std::char_traits<char>, std::allocator<char> > const, std::__cxx11::basic_string<char, std::char_traits<char>, std::allocator<char> > > >, std::less<std::__cxx11::basic_string<char, std::char_traits<char>, std::allocator<char> > >, std::allocator<std::pair<std::__cxx11::basic_string<char, std::char_traits<char>, std::allocator<char> > const, std::__cxx11::basic_string<char, std::char_traits<char>, std::allocator<char> > > > >&)
PUBLIC 46768 0 std::_Rb_tree<std::__cxx11::basic_string<char, std::char_traits<char>, std::allocator<char> >, std::pair<std::__cxx11::basic_string<char, std::char_traits<char>, std::allocator<char> > const, std::__cxx11::basic_string<char, std::char_traits<char>, std::allocator<char> > >, std::_Select1st<std::pair<std::__cxx11::basic_string<char, std::char_traits<char>, std::allocator<char> > const, std::__cxx11::basic_string<char, std::char_traits<char>, std::allocator<char> > > >, std::less<std::__cxx11::basic_string<char, std::char_traits<char>, std::allocator<char> > >, std::allocator<std::pair<std::__cxx11::basic_string<char, std::char_traits<char>, std::allocator<char> > const, std::__cxx11::basic_string<char, std::char_traits<char>, std::allocator<char> > > > >::end()
PUBLIC 46792 0 std::_Rb_tree_const_iterator<std::pair<std::__cxx11::basic_string<char, std::char_traits<char>, std::allocator<char> > const, std::__cxx11::basic_string<char, std::char_traits<char>, std::allocator<char> > > >::_Rb_tree_const_iterator(std::_Rb_tree_iterator<std::pair<std::__cxx11::basic_string<char, std::char_traits<char>, std::allocator<char> > const, std::__cxx11::basic_string<char, std::char_traits<char>, std::allocator<char> > > > const&)
PUBLIC 467af 0 std::pair<std::__cxx11::basic_string<char, std::char_traits<char>, std::allocator<char> > const, std::__cxx11::basic_string<char, std::char_traits<char>, std::allocator<char> > > const& std::forward<std::pair<std::__cxx11::basic_string<char, std::char_traits<char>, std::allocator<char> > const, std::__cxx11::basic_string<char, std::char_traits<char>, std::allocator<char> > > const&>(std::remove_reference<std::pair<std::__cxx11::basic_string<char, std::char_traits<char>, std::allocator<char> > const, std::__cxx11::basic_string<char, std::char_traits<char>, std::allocator<char> > > const&>::type&)
PUBLIC 467be 0 std::_Rb_tree_iterator<std::pair<std::__cxx11::basic_string<char, std::char_traits<char>, std::allocator<char> > const, std::__cxx11::basic_string<char, std::char_traits<char>, std::allocator<char> > > > std::_Rb_tree<std::__cxx11::basic_string<char, std::char_traits<char>, std::allocator<char> >, std::pair<std::__cxx11::basic_string<char, std::char_traits<char>, std::allocator<char> > const, std::__cxx11::basic_string<char, std::char_traits<char>, std::allocator<char> > >, std::_Select1st<std::pair<std::__cxx11::basic_string<char, std::char_traits<char>, std::allocator<char> > const, std::__cxx11::basic_string<char, std::char_traits<char>, std::allocator<char> > > >, std::less<std::__cxx11::basic_string<char, std::char_traits<char>, std::allocator<char> > >, std::allocator<std::pair<std::__cxx11::basic_string<char, std::char_traits<char>, std::allocator<char> > const, std::__cxx11::basic_string<char, std::char_traits<char>, std::allocator<char> > > > >::_M_insert_unique_<std::pair<std::__cxx11::basic_string<char, std::char_traits<char>, std::allocator<char> > const, std::__cxx11::basic_string<char, std::char_traits<char>, std::allocator<char> > > const&, std::_Rb_tree<std::__cxx11::basic_string<char, std::char_traits<char>, std::allocator<char> >, std::pair<std::__cxx11::basic_string<char, std::char_traits<char>, std::allocator<char> > const, std::__cxx11::basic_string<char, std::char_traits<char>, std::allocator<char> > >, std::_Select1st<std::pair<std::__cxx11::basic_string<char, std::char_traits<char>, std::allocator<char> > const, std::__cxx11::basic_string<char, std::char_traits<char>, std::allocator<char> > > >, std::less<std::__cxx11::basic_string<char, std::char_traits<char>, std::allocator<char> > >, std::allocator<std::pair<std::__cxx11::basic_string<char, std::char_traits<char>, std::allocator<char> > const, std::__cxx11::basic_string<char, std::char_traits<char>, std::allocator<char> > > > >::_Alloc_node>(std::_Rb_tree_const_iterator<std::pair<std::__cxx11::basic_string<char, std::char_traits<char>, std::allocator<char> > const, std::__cxx11::basic_string<char, std::char_traits<char>, std::allocator<char> > > >, std::pair<std::__cxx11::basic_string<char, std::char_traits<char>, std::allocator<char> > const, std::__cxx11::basic_string<char, std::char_traits<char>, std::allocator<char> > > const&, std::_Rb_tree<std::__cxx11::basic_string<char, std::char_traits<char>, std::allocator<char> >, std::pair<std::__cxx11::basic_string<char, std::char_traits<char>, std::allocator<char> > const, std::__cxx11::basic_string<char, std::char_traits<char>, std::allocator<char> > >, std::_Select1st<std::pair<std::__cxx11::basic_string<char, std::char_traits<char>, std::allocator<char> > const, std::__cxx11::basic_string<char, std::char_traits<char>, std::allocator<char> > > >, std::less<std::__cxx11::basic_string<char, std::char_traits<char>, std::allocator<char> > >, std::allocator<std::pair<std::__cxx11::basic_string<char, std::char_traits<char>, std::allocator<char> > const, std::__cxx11::basic_string<char, std::char_traits<char>, std::allocator<char> > > > >::_Alloc_node&)
PUBLIC 46858 0 __gnu_cxx::new_allocator<std::_Rb_tree_node<std::pair<std::__cxx11::basic_string<char, std::char_traits<char>, std::allocator<char> > const, std::__cxx11::basic_string<char, std::char_traits<char>, std::allocator<char> > > > >::~new_allocator()
PUBLIC 46863 0 std::_Rb_tree<std::__cxx11::basic_string<char, std::char_traits<char>, std::allocator<char> >, std::pair<std::__cxx11::basic_string<char, std::char_traits<char>, std::allocator<char> > const, std::__cxx11::basic_string<char, std::char_traits<char>, std::allocator<char> > >, std::_Select1st<std::pair<std::__cxx11::basic_string<char, std::char_traits<char>, std::allocator<char> > const, std::__cxx11::basic_string<char, std::char_traits<char>, std::allocator<char> > > >, std::less<std::__cxx11::basic_string<char, std::char_traits<char>, std::allocator<char> > >, std::allocator<std::pair<std::__cxx11::basic_string<char, std::char_traits<char>, std::allocator<char> > const, std::__cxx11::basic_string<char, std::char_traits<char>, std::allocator<char> > > > >::_S_right(std::_Rb_tree_node_base*)
PUBLIC 46875 0 std::_Rb_tree<std::__cxx11::basic_string<char, std::char_traits<char>, std::allocator<char> >, std::pair<std::__cxx11::basic_string<char, std::char_traits<char>, std::allocator<char> > const, std::__cxx11::basic_string<char, std::char_traits<char>, std::allocator<char> > >, std::_Select1st<std::pair<std::__cxx11::basic_string<char, std::char_traits<char>, std::allocator<char> > const, std::__cxx11::basic_string<char, std::char_traits<char>, std::allocator<char> > > >, std::less<std::__cxx11::basic_string<char, std::char_traits<char>, std::allocator<char> > >, std::allocator<std::pair<std::__cxx11::basic_string<char, std::char_traits<char>, std::allocator<char> > const, std::__cxx11::basic_string<char, std::char_traits<char>, std::allocator<char> > > > >::_S_left(std::_Rb_tree_node_base*)
PUBLIC 46888 0 std::_Rb_tree<std::__cxx11::basic_string<char, std::char_traits<char>, std::allocator<char> >, std::pair<std::__cxx11::basic_string<char, std::char_traits<char>, std::allocator<char> > const, std::__cxx11::basic_string<char, std::char_traits<char>, std::allocator<char> > >, std::_Select1st<std::pair<std::__cxx11::basic_string<char, std::char_traits<char>, std::allocator<char> > const, std::__cxx11::basic_string<char, std::char_traits<char>, std::allocator<char> > > >, std::less<std::__cxx11::basic_string<char, std::char_traits<char>, std::allocator<char> > >, std::allocator<std::pair<std::__cxx11::basic_string<char, std::char_traits<char>, std::allocator<char> > const, std::__cxx11::basic_string<char, std::char_traits<char>, std::allocator<char> > > > >::_M_drop_node(std::_Rb_tree_node<std::pair<std::__cxx11::basic_string<char, std::char_traits<char>, std::allocator<char> > const, std::__cxx11::basic_string<char, std::char_traits<char>, std::allocator<char> > > >*)
PUBLIC 468c2 0 __gnu_cxx::__aligned_membuf<std::pair<std::__cxx11::basic_string<char, std::char_traits<char>, std::allocator<char> > const, std::__cxx11::basic_string<char, std::char_traits<char>, std::allocator<char> > > >::_M_addr() const
PUBLIC 468d0 0 __gnu_cxx::new_allocator<std::_Rb_tree_node<std::pair<std::__cxx11::basic_string<char, std::char_traits<char>, std::allocator<char> > const, std::__cxx11::basic_string<char, std::char_traits<char>, std::allocator<char> > > > >::new_allocator()
PUBLIC 468dc 0 std::allocator<std::_Rb_tree_node<std::pair<std::__cxx11::basic_string<char, std::char_traits<char>, std::allocator<char> > const, std::__cxx11::basic_string<char, std::char_traits<char>, std::allocator<char> > > > >::allocator(std::allocator<std::_Rb_tree_node<std::pair<std::__cxx11::basic_string<char, std::char_traits<char>, std::allocator<char> > const, std::__cxx11::basic_string<char, std::char_traits<char>, std::allocator<char> > > > > const&)
PUBLIC 46902 0 std::_Rb_tree<std::__cxx11::basic_string<char, std::char_traits<char>, std::allocator<char> >, std::pair<std::__cxx11::basic_string<char, std::char_traits<char>, std::allocator<char> > const, std::__cxx11::basic_string<char, std::char_traits<char>, std::allocator<char> > >, std::_Select1st<std::pair<std::__cxx11::basic_string<char, std::char_traits<char>, std::allocator<char> > const, std::__cxx11::basic_string<char, std::char_traits<char>, std::allocator<char> > > >, std::less<std::__cxx11::basic_string<char, std::char_traits<char>, std::allocator<char> > >, std::allocator<std::pair<std::__cxx11::basic_string<char, std::char_traits<char>, std::allocator<char> > const, std::__cxx11::basic_string<char, std::char_traits<char>, std::allocator<char> > > > >::_Rb_tree_impl<std::less<std::__cxx11::basic_string<char, std::char_traits<char>, std::allocator<char> > >, true>::_M_initialize()
PUBLIC 46944 0 std::_Rb_tree_iterator<std::pair<std::__cxx11::basic_string<char, std::char_traits<char>, std::allocator<char> > const, std::__cxx11::basic_string<char, std::char_traits<char>, std::allocator<char> > > >::_Rb_tree_iterator(std::_Rb_tree_node_base*)
PUBLIC 4695e 0 std::_Rb_tree_node_base*& std::forward<std::_Rb_tree_node_base*&>(std::remove_reference<std::_Rb_tree_node_base*&>::type&)
PUBLIC 4696c 0 std::pair<std::_Rb_tree_node_base*, std::_Rb_tree_node_base*>::pair<std::_Rb_tree_node_base*&, void>(std::_Rb_tree_node_base* const&, std::_Rb_tree_node_base*&)
PUBLIC 469a8 0 std::pair<std::_Rb_tree_node_base*, std::_Rb_tree_node_base*>::pair<std::_Rb_tree_node_base*&, std::_Rb_tree_node_base*&, void>(std::_Rb_tree_node_base*&, std::_Rb_tree_node_base*&)
PUBLIC 469ec 0 std::pair<std::_Rb_tree_node_base*, std::_Rb_tree_node_base*>::pair<std::_Rb_tree_node_base*&, void>(std::_Rb_tree_node_base*&, std::_Rb_tree_node_base* const&)
PUBLIC 46a28 0 std::_Rb_tree<std::__cxx11::basic_string<char, std::char_traits<char>, std::allocator<char> >, std::pair<std::__cxx11::basic_string<char, std::char_traits<char>, std::allocator<char> > const, std::__cxx11::basic_string<char, std::char_traits<char>, std::allocator<char> > >, std::_Select1st<std::pair<std::__cxx11::basic_string<char, std::char_traits<char>, std::allocator<char> > const, std::__cxx11::basic_string<char, std::char_traits<char>, std::allocator<char> > > >, std::less<std::__cxx11::basic_string<char, std::char_traits<char>, std::allocator<char> > >, std::allocator<std::pair<std::__cxx11::basic_string<char, std::char_traits<char>, std::allocator<char> > const, std::__cxx11::basic_string<char, std::char_traits<char>, std::allocator<char> > > > >::_M_get_insert_hint_unique_pos(std::_Rb_tree_const_iterator<std::pair<std::__cxx11::basic_string<char, std::char_traits<char>, std::allocator<char> > const, std::__cxx11::basic_string<char, std::char_traits<char>, std::allocator<char> > > >, std::__cxx11::basic_string<char, std::char_traits<char>, std::allocator<char> > const&)
PUBLIC 46e72 0 std::_Select1st<std::pair<std::__cxx11::basic_string<char, std::char_traits<char>, std::allocator<char> > const, std::__cxx11::basic_string<char, std::char_traits<char>, std::allocator<char> > > >::operator()(std::pair<std::__cxx11::basic_string<char, std::char_traits<char>, std::allocator<char> > const, std::__cxx11::basic_string<char, std::char_traits<char>, std::allocator<char> > > const&) const
PUBLIC 46e84 0 std::_Rb_tree_iterator<std::pair<std::__cxx11::basic_string<char, std::char_traits<char>, std::allocator<char> > const, std::__cxx11::basic_string<char, std::char_traits<char>, std::allocator<char> > > > std::_Rb_tree<std::__cxx11::basic_string<char, std::char_traits<char>, std::allocator<char> >, std::pair<std::__cxx11::basic_string<char, std::char_traits<char>, std::allocator<char> > const, std::__cxx11::basic_string<char, std::char_traits<char>, std::allocator<char> > >, std::_Select1st<std::pair<std::__cxx11::basic_string<char, std::char_traits<char>, std::allocator<char> > const, std::__cxx11::basic_string<char, std::char_traits<char>, std::allocator<char> > > >, std::less<std::__cxx11::basic_string<char, std::char_traits<char>, std::allocator<char> > >, std::allocator<std::pair<std::__cxx11::basic_string<char, std::char_traits<char>, std::allocator<char> > const, std::__cxx11::basic_string<char, std::char_traits<char>, std::allocator<char> > > > >::_M_insert_<std::pair<std::__cxx11::basic_string<char, std::char_traits<char>, std::allocator<char> > const, std::__cxx11::basic_string<char, std::char_traits<char>, std::allocator<char> > > const&, std::_Rb_tree<std::__cxx11::basic_string<char, std::char_traits<char>, std::allocator<char> >, std::pair<std::__cxx11::basic_string<char, std::char_traits<char>, std::allocator<char> > const, std::__cxx11::basic_string<char, std::char_traits<char>, std::allocator<char> > >, std::_Select1st<std::pair<std::__cxx11::basic_string<char, std::char_traits<char>, std::allocator<char> > const, std::__cxx11::basic_string<char, std::char_traits<char>, std::allocator<char> > > >, std::less<std::__cxx11::basic_string<char, std::char_traits<char>, std::allocator<char> > >, std::allocator<std::pair<std::__cxx11::basic_string<char, std::char_traits<char>, std::allocator<char> > const, std::__cxx11::basic_string<char, std::char_traits<char>, std::allocator<char> > > > >::_Alloc_node>(std::_Rb_tree_node_base*, std::_Rb_tree_node_base*, std::pair<std::__cxx11::basic_string<char, std::char_traits<char>, std::allocator<char> > const, std::__cxx11::basic_string<char, std::char_traits<char>, std::allocator<char> > > const&, std::_Rb_tree<std::__cxx11::basic_string<char, std::char_traits<char>, std::allocator<char> >, std::pair<std::__cxx11::basic_string<char, std::char_traits<char>, std::allocator<char> > const, std::__cxx11::basic_string<char, std::char_traits<char>, std::allocator<char> > >, std::_Select1st<std::pair<std::__cxx11::basic_string<char, std::char_traits<char>, std::allocator<char> > const, std::__cxx11::basic_string<char, std::char_traits<char>, std::allocator<char> > > >, std::less<std::__cxx11::basic_string<char, std::char_traits<char>, std::allocator<char> > >, std::allocator<std::pair<std::__cxx11::basic_string<char, std::char_traits<char>, std::allocator<char> > const, std::__cxx11::basic_string<char, std::char_traits<char>, std::allocator<char> > > > >::_Alloc_node&)
PUBLIC 46f92 0 std::_Rb_tree<std::__cxx11::basic_string<char, std::char_traits<char>, std::allocator<char> >, std::pair<std::__cxx11::basic_string<char, std::char_traits<char>, std::allocator<char> > const, std::__cxx11::basic_string<char, std::char_traits<char>, std::allocator<char> > >, std::_Select1st<std::pair<std::__cxx11::basic_string<char, std::char_traits<char>, std::allocator<char> > const, std::__cxx11::basic_string<char, std::char_traits<char>, std::allocator<char> > > >, std::less<std::__cxx11::basic_string<char, std::char_traits<char>, std::allocator<char> > >, std::allocator<std::pair<std::__cxx11::basic_string<char, std::char_traits<char>, std::allocator<char> > const, std::__cxx11::basic_string<char, std::char_traits<char>, std::allocator<char> > > > >::_M_destroy_node(std::_Rb_tree_node<std::pair<std::__cxx11::basic_string<char, std::char_traits<char>, std::allocator<char> > const, std::__cxx11::basic_string<char, std::char_traits<char>, std::allocator<char> > > >*)
PUBLIC 46fd2 0 std::_Rb_tree<std::__cxx11::basic_string<char, std::char_traits<char>, std::allocator<char> >, std::pair<std::__cxx11::basic_string<char, std::char_traits<char>, std::allocator<char> > const, std::__cxx11::basic_string<char, std::char_traits<char>, std::allocator<char> > >, std::_Select1st<std::pair<std::__cxx11::basic_string<char, std::char_traits<char>, std::allocator<char> > const, std::__cxx11::basic_string<char, std::char_traits<char>, std::allocator<char> > > >, std::less<std::__cxx11::basic_string<char, std::char_traits<char>, std::allocator<char> > >, std::allocator<std::pair<std::__cxx11::basic_string<char, std::char_traits<char>, std::allocator<char> > const, std::__cxx11::basic_string<char, std::char_traits<char>, std::allocator<char> > > > >::_M_put_node(std::_Rb_tree_node<std::pair<std::__cxx11::basic_string<char, std::char_traits<char>, std::allocator<char> > const, std::__cxx11::basic_string<char, std::char_traits<char>, std::allocator<char> > > >*)
PUBLIC 47008 0 __gnu_cxx::new_allocator<std::_Rb_tree_node<std::pair<std::__cxx11::basic_string<char, std::char_traits<char>, std::allocator<char> > const, std::__cxx11::basic_string<char, std::char_traits<char>, std::allocator<char> > > > >::new_allocator(__gnu_cxx::new_allocator<std::_Rb_tree_node<std::pair<std::__cxx11::basic_string<char, std::char_traits<char>, std::allocator<char> > const, std::__cxx11::basic_string<char, std::char_traits<char>, std::allocator<char> > > > > const&)
PUBLIC 47018 0 std::_Rb_tree_const_iterator<std::pair<std::__cxx11::basic_string<char, std::char_traits<char>, std::allocator<char> > const, std::__cxx11::basic_string<char, std::char_traits<char>, std::allocator<char> > > >::_M_const_cast() const
PUBLIC 47040 0 std::_Rb_tree<std::__cxx11::basic_string<char, std::char_traits<char>, std::allocator<char> >, std::pair<std::__cxx11::basic_string<char, std::char_traits<char>, std::allocator<char> > const, std::__cxx11::basic_string<char, std::char_traits<char>, std::allocator<char> > >, std::_Select1st<std::pair<std::__cxx11::basic_string<char, std::char_traits<char>, std::allocator<char> > const, std::__cxx11::basic_string<char, std::char_traits<char>, std::allocator<char> > > >, std::less<std::__cxx11::basic_string<char, std::char_traits<char>, std::allocator<char> > >, std::allocator<std::pair<std::__cxx11::basic_string<char, std::char_traits<char>, std::allocator<char> > const, std::__cxx11::basic_string<char, std::char_traits<char>, std::allocator<char> > > > >::_M_end()
PUBLIC 47052 0 std::_Rb_tree<std::__cxx11::basic_string<char, std::char_traits<char>, std::allocator<char> >, std::pair<std::__cxx11::basic_string<char, std::char_traits<char>, std::allocator<char> > const, std::__cxx11::basic_string<char, std::char_traits<char>, std::allocator<char> > >, std::_Select1st<std::pair<std::__cxx11::basic_string<char, std::char_traits<char>, std::allocator<char> > const, std::__cxx11::basic_string<char, std::char_traits<char>, std::allocator<char> > > >, std::less<std::__cxx11::basic_string<char, std::char_traits<char>, std::allocator<char> > >, std::allocator<std::pair<std::__cxx11::basic_string<char, std::char_traits<char>, std::allocator<char> > const, std::__cxx11::basic_string<char, std::char_traits<char>, std::allocator<char> > > > >::size() const
PUBLIC 47064 0 std::_Rb_tree<std::__cxx11::basic_string<char, std::char_traits<char>, std::allocator<char> >, std::pair<std::__cxx11::basic_string<char, std::char_traits<char>, std::allocator<char> > const, std::__cxx11::basic_string<char, std::char_traits<char>, std::allocator<char> > >, std::_Select1st<std::pair<std::__cxx11::basic_string<char, std::char_traits<char>, std::allocator<char> > const, std::__cxx11::basic_string<char, std::char_traits<char>, std::allocator<char> > > >, std::less<std::__cxx11::basic_string<char, std::char_traits<char>, std::allocator<char> > >, std::allocator<std::pair<std::__cxx11::basic_string<char, std::char_traits<char>, std::allocator<char> > const, std::__cxx11::basic_string<char, std::char_traits<char>, std::allocator<char> > > > >::_M_rightmost()
PUBLIC 47076 0 std::_Rb_tree<std::__cxx11::basic_string<char, std::char_traits<char>, std::allocator<char> >, std::pair<std::__cxx11::basic_string<char, std::char_traits<char>, std::allocator<char> > const, std::__cxx11::basic_string<char, std::char_traits<char>, std::allocator<char> > >, std::_Select1st<std::pair<std::__cxx11::basic_string<char, std::char_traits<char>, std::allocator<char> > const, std::__cxx11::basic_string<char, std::char_traits<char>, std::allocator<char> > > >, std::less<std::__cxx11::basic_string<char, std::char_traits<char>, std::allocator<char> > >, std::allocator<std::pair<std::__cxx11::basic_string<char, std::char_traits<char>, std::allocator<char> > const, std::__cxx11::basic_string<char, std::char_traits<char>, std::allocator<char> > > > >::_S_key(std::_Rb_tree_node_base const*)
PUBLIC 470a2 0 std::less<std::__cxx11::basic_string<char, std::char_traits<char>, std::allocator<char> > >::operator()(std::__cxx11::basic_string<char, std::char_traits<char>, std::allocator<char> > const&, std::__cxx11::basic_string<char, std::char_traits<char>, std::allocator<char> > const&) const
PUBLIC 470cb 0 std::_Rb_tree_node<std::pair<std::__cxx11::basic_string<char, std::char_traits<char>, std::allocator<char> > const, std::__cxx11::basic_string<char, std::char_traits<char>, std::allocator<char> > > >*& std::forward<std::_Rb_tree_node<std::pair<std::__cxx11::basic_string<char, std::char_traits<char>, std::allocator<char> > const, std::__cxx11::basic_string<char, std::char_traits<char>, std::allocator<char> > > >*&>(std::remove_reference<std::_Rb_tree_node<std::pair<std::__cxx11::basic_string<char, std::char_traits<char>, std::allocator<char> > const, std::__cxx11::basic_string<char, std::char_traits<char>, std::allocator<char> > > >*&>::type&)
PUBLIC 470da 0 std::pair<std::_Rb_tree_node_base*, std::_Rb_tree_node_base*>::pair<std::_Rb_tree_node<std::pair<std::__cxx11::basic_string<char, std::char_traits<char>, std::allocator<char> > const, std::__cxx11::basic_string<char, std::char_traits<char>, std::allocator<char> > > >*&, std::_Rb_tree_node<std::pair<std::__cxx11::basic_string<char, std::char_traits<char>, std::allocator<char> > const, std::__cxx11::basic_string<char, std::char_traits<char>, std::allocator<char> > > >*&, void>(std::_Rb_tree_node<std::pair<std::__cxx11::basic_string<char, std::char_traits<char>, std::allocator<char> > const, std::__cxx11::basic_string<char, std::char_traits<char>, std::allocator<char> > > >*&, std::_Rb_tree_node<std::pair<std::__cxx11::basic_string<char, std::char_traits<char>, std::allocator<char> > const, std::__cxx11::basic_string<char, std::char_traits<char>, std::allocator<char> > > >*&)
PUBLIC 4711e 0 std::_Rb_tree<std::__cxx11::basic_string<char, std::char_traits<char>, std::allocator<char> >, std::pair<std::__cxx11::basic_string<char, std::char_traits<char>, std::allocator<char> > const, std::__cxx11::basic_string<char, std::char_traits<char>, std::allocator<char> > >, std::_Select1st<std::pair<std::__cxx11::basic_string<char, std::char_traits<char>, std::allocator<char> > const, std::__cxx11::basic_string<char, std::char_traits<char>, std::allocator<char> > > >, std::less<std::__cxx11::basic_string<char, std::char_traits<char>, std::allocator<char> > >, std::allocator<std::pair<std::__cxx11::basic_string<char, std::char_traits<char>, std::allocator<char> > const, std::__cxx11::basic_string<char, std::char_traits<char>, std::allocator<char> > > > >::_M_get_insert_unique_pos(std::__cxx11::basic_string<char, std::char_traits<char>, std::allocator<char> > const&)
PUBLIC 4728c 0 std::_Rb_tree<std::__cxx11::basic_string<char, std::char_traits<char>, std::allocator<char> >, std::pair<std::__cxx11::basic_string<char, std::char_traits<char>, std::allocator<char> > const, std::__cxx11::basic_string<char, std::char_traits<char>, std::allocator<char> > >, std::_Select1st<std::pair<std::__cxx11::basic_string<char, std::char_traits<char>, std::allocator<char> > const, std::__cxx11::basic_string<char, std::char_traits<char>, std::allocator<char> > > >, std::less<std::__cxx11::basic_string<char, std::char_traits<char>, std::allocator<char> > >, std::allocator<std::pair<std::__cxx11::basic_string<char, std::char_traits<char>, std::allocator<char> > const, std::__cxx11::basic_string<char, std::char_traits<char>, std::allocator<char> > > > >::_M_leftmost()
PUBLIC 4729e 0 std::_Rb_tree_iterator<std::pair<std::__cxx11::basic_string<char, std::char_traits<char>, std::allocator<char> > const, std::__cxx11::basic_string<char, std::char_traits<char>, std::allocator<char> > > >::operator--()
PUBLIC 472ca 0 std::_Rb_tree_iterator<std::pair<std::__cxx11::basic_string<char, std::char_traits<char>, std::allocator<char> > const, std::__cxx11::basic_string<char, std::char_traits<char>, std::allocator<char> > > >::operator++()
PUBLIC 472f6 0 std::_Rb_tree_node<std::pair<std::__cxx11::basic_string<char, std::char_traits<char>, std::allocator<char> > const, std::__cxx11::basic_string<char, std::char_traits<char>, std::allocator<char> > > >* std::_Rb_tree<std::__cxx11::basic_string<char, std::char_traits<char>, std::allocator<char> >, std::pair<std::__cxx11::basic_string<char, std::char_traits<char>, std::allocator<char> > const, std::__cxx11::basic_string<char, std::char_traits<char>, std::allocator<char> > >, std::_Select1st<std::pair<std::__cxx11::basic_string<char, std::char_traits<char>, std::allocator<char> > const, std::__cxx11::basic_string<char, std::char_traits<char>, std::allocator<char> > > >, std::less<std::__cxx11::basic_string<char, std::char_traits<char>, std::allocator<char> > >, std::allocator<std::pair<std::__cxx11::basic_string<char, std::char_traits<char>, std::allocator<char> > const, std::__cxx11::basic_string<char, std::char_traits<char>, std::allocator<char> > > > >::_Alloc_node::operator()<std::pair<std::__cxx11::basic_string<char, std::char_traits<char>, std::allocator<char> > const, std::__cxx11::basic_string<char, std::char_traits<char>, std::allocator<char> > > const&>(std::pair<std::__cxx11::basic_string<char, std::char_traits<char>, std::allocator<char> > const, std::__cxx11::basic_string<char, std::char_traits<char>, std::allocator<char> > > const&) const
PUBLIC 4732a 0 std::_Rb_tree<std::__cxx11::basic_string<char, std::char_traits<char>, std::allocator<char> >, std::pair<std::__cxx11::basic_string<char, std::char_traits<char>, std::allocator<char> > const, std::__cxx11::basic_string<char, std::char_traits<char>, std::allocator<char> > >, std::_Select1st<std::pair<std::__cxx11::basic_string<char, std::char_traits<char>, std::allocator<char> > const, std::__cxx11::basic_string<char, std::char_traits<char>, std::allocator<char> > > >, std::less<std::__cxx11::basic_string<char, std::char_traits<char>, std::allocator<char> > >, std::allocator<std::pair<std::__cxx11::basic_string<char, std::char_traits<char>, std::allocator<char> > const, std::__cxx11::basic_string<char, std::char_traits<char>, std::allocator<char> > > > >::_M_get_Node_allocator()
PUBLIC 47338 0 std::_Rb_tree_node<std::pair<std::__cxx11::basic_string<char, std::char_traits<char>, std::allocator<char> > const, std::__cxx11::basic_string<char, std::char_traits<char>, std::allocator<char> > > >::_M_valptr()
PUBLIC 47356 0 void std::allocator_traits<std::allocator<std::_Rb_tree_node<std::pair<std::__cxx11::basic_string<char, std::char_traits<char>, std::allocator<char> > const, std::__cxx11::basic_string<char, std::char_traits<char>, std::allocator<char> > > > > >::destroy<std::pair<std::__cxx11::basic_string<char, std::char_traits<char>, std::allocator<char> > const, std::__cxx11::basic_string<char, std::char_traits<char>, std::allocator<char> > > >(std::allocator<std::_Rb_tree_node<std::pair<std::__cxx11::basic_string<char, std::char_traits<char>, std::allocator<char> > const, std::__cxx11::basic_string<char, std::char_traits<char>, std::allocator<char> > > > >&, std::pair<std::__cxx11::basic_string<char, std::char_traits<char>, std::allocator<char> > const, std::__cxx11::basic_string<char, std::char_traits<char>, std::allocator<char> > >*)
PUBLIC 4737c 0 std::allocator_traits<std::allocator<std::_Rb_tree_node<std::pair<std::__cxx11::basic_string<char, std::char_traits<char>, std::allocator<char> > const, std::__cxx11::basic_string<char, std::char_traits<char>, std::allocator<char> > > > > >::deallocate(std::allocator<std::_Rb_tree_node<std::pair<std::__cxx11::basic_string<char, std::char_traits<char>, std::allocator<char> > const, std::__cxx11::basic_string<char, std::char_traits<char>, std::allocator<char> > > > >&, std::_Rb_tree_node<std::pair<std::__cxx11::basic_string<char, std::char_traits<char>, std::allocator<char> > const, std::__cxx11::basic_string<char, std::char_traits<char>, std::allocator<char> > > >*, unsigned long)
PUBLIC 473aa 0 std::_Rb_tree<std::__cxx11::basic_string<char, std::char_traits<char>, std::allocator<char> >, std::pair<std::__cxx11::basic_string<char, std::char_traits<char>, std::allocator<char> > const, std::__cxx11::basic_string<char, std::char_traits<char>, std::allocator<char> > >, std::_Select1st<std::pair<std::__cxx11::basic_string<char, std::char_traits<char>, std::allocator<char> > const, std::__cxx11::basic_string<char, std::char_traits<char>, std::allocator<char> > > >, std::less<std::__cxx11::basic_string<char, std::char_traits<char>, std::allocator<char> > >, std::allocator<std::pair<std::__cxx11::basic_string<char, std::char_traits<char>, std::allocator<char> > const, std::__cxx11::basic_string<char, std::char_traits<char>, std::allocator<char> > > > >::_S_value(std::_Rb_tree_node_base const*)
PUBLIC 473c4 0 bool std::operator< <char, std::char_traits<char>, std::allocator<char> >(std::__cxx11::basic_string<char, std::char_traits<char>, std::allocator<char> > const&, std::__cxx11::basic_string<char, std::char_traits<char>, std::allocator<char> > const&)
PUBLIC 473ec 0 std::_Rb_tree<std::__cxx11::basic_string<char, std::char_traits<char>, std::allocator<char> >, std::pair<std::__cxx11::basic_string<char, std::char_traits<char>, std::allocator<char> > const, std::__cxx11::basic_string<char, std::char_traits<char>, std::allocator<char> > >, std::_Select1st<std::pair<std::__cxx11::basic_string<char, std::char_traits<char>, std::allocator<char> > const, std::__cxx11::basic_string<char, std::char_traits<char>, std::allocator<char> > > >, std::less<std::__cxx11::basic_string<char, std::char_traits<char>, std::allocator<char> > >, std::allocator<std::pair<std::__cxx11::basic_string<char, std::char_traits<char>, std::allocator<char> > const, std::__cxx11::basic_string<char, std::char_traits<char>, std::allocator<char> > > > >::_S_key(std::_Rb_tree_node<std::pair<std::__cxx11::basic_string<char, std::char_traits<char>, std::allocator<char> > const, std::__cxx11::basic_string<char, std::char_traits<char>, std::allocator<char> > > > const*)
PUBLIC 47418 0 std::_Rb_tree<std::__cxx11::basic_string<char, std::char_traits<char>, std::allocator<char> >, std::pair<std::__cxx11::basic_string<char, std::char_traits<char>, std::allocator<char> > const, std::__cxx11::basic_string<char, std::char_traits<char>, std::allocator<char> > >, std::_Select1st<std::pair<std::__cxx11::basic_string<char, std::char_traits<char>, std::allocator<char> > const, std::__cxx11::basic_string<char, std::char_traits<char>, std::allocator<char> > > >, std::less<std::__cxx11::basic_string<char, std::char_traits<char>, std::allocator<char> > >, std::allocator<std::pair<std::__cxx11::basic_string<char, std::char_traits<char>, std::allocator<char> > const, std::__cxx11::basic_string<char, std::char_traits<char>, std::allocator<char> > > > >::begin()
PUBLIC 47442 0 std::_Rb_tree_iterator<std::pair<std::__cxx11::basic_string<char, std::char_traits<char>, std::allocator<char> > const, std::__cxx11::basic_string<char, std::char_traits<char>, std::allocator<char> > > >::operator==(std::_Rb_tree_iterator<std::pair<std::__cxx11::basic_string<char, std::char_traits<char>, std::allocator<char> > const, std::__cxx11::basic_string<char, std::char_traits<char>, std::allocator<char> > > > const&) const
PUBLIC 47464 0 std::_Rb_tree_node<std::pair<std::__cxx11::basic_string<char, std::char_traits<char>, std::allocator<char> > const, std::__cxx11::basic_string<char, std::char_traits<char>, std::allocator<char> > > >* std::_Rb_tree<std::__cxx11::basic_string<char, std::char_traits<char>, std::allocator<char> >, std::pair<std::__cxx11::basic_string<char, std::char_traits<char>, std::allocator<char> > const, std::__cxx11::basic_string<char, std::char_traits<char>, std::allocator<char> > >, std::_Select1st<std::pair<std::__cxx11::basic_string<char, std::char_traits<char>, std::allocator<char> > const, std::__cxx11::basic_string<char, std::char_traits<char>, std::allocator<char> > > >, std::less<std::__cxx11::basic_string<char, std::char_traits<char>, std::allocator<char> > >, std::allocator<std::pair<std::__cxx11::basic_string<char, std::char_traits<char>, std::allocator<char> > const, std::__cxx11::basic_string<char, std::char_traits<char>, std::allocator<char> > > > >::_M_create_node<std::pair<std::__cxx11::basic_string<char, std::char_traits<char>, std::allocator<char> > const, std::__cxx11::basic_string<char, std::char_traits<char>, std::allocator<char> > > const&>(std::pair<std::__cxx11::basic_string<char, std::char_traits<char>, std::allocator<char> > const, std::__cxx11::basic_string<char, std::char_traits<char>, std::allocator<char> > > const&)
PUBLIC 474ac 0 __gnu_cxx::__aligned_membuf<std::pair<std::__cxx11::basic_string<char, std::char_traits<char>, std::allocator<char> > const, std::__cxx11::basic_string<char, std::char_traits<char>, std::allocator<char> > > >::_M_ptr()
PUBLIC 474c6 0 void __gnu_cxx::new_allocator<std::_Rb_tree_node<std::pair<std::__cxx11::basic_string<char, std::char_traits<char>, std::allocator<char> > const, std::__cxx11::basic_string<char, std::char_traits<char>, std::allocator<char> > > > >::destroy<std::pair<std::__cxx11::basic_string<char, std::char_traits<char>, std::allocator<char> > const, std::__cxx11::basic_string<char, std::char_traits<char>, std::allocator<char> > > >(std::pair<std::__cxx11::basic_string<char, std::char_traits<char>, std::allocator<char> > const, std::__cxx11::basic_string<char, std::char_traits<char>, std::allocator<char> > >*)
PUBLIC 474e6 0 __gnu_cxx::new_allocator<std::_Rb_tree_node<std::pair<std::__cxx11::basic_string<char, std::char_traits<char>, std::allocator<char> > const, std::__cxx11::basic_string<char, std::char_traits<char>, std::allocator<char> > > > >::deallocate(std::_Rb_tree_node<std::pair<std::__cxx11::basic_string<char, std::char_traits<char>, std::allocator<char> > const, std::__cxx11::basic_string<char, std::char_traits<char>, std::allocator<char> > > >*, unsigned long)
PUBLIC 47509 0 std::_Rb_tree<std::__cxx11::basic_string<char, std::char_traits<char>, std::allocator<char> >, std::pair<std::__cxx11::basic_string<char, std::char_traits<char>, std::allocator<char> > const, std::__cxx11::basic_string<char, std::char_traits<char>, std::allocator<char> > >, std::_Select1st<std::pair<std::__cxx11::basic_string<char, std::char_traits<char>, std::allocator<char> > const, std::__cxx11::basic_string<char, std::char_traits<char>, std::allocator<char> > > >, std::less<std::__cxx11::basic_string<char, std::char_traits<char>, std::allocator<char> > >, std::allocator<std::pair<std::__cxx11::basic_string<char, std::char_traits<char>, std::allocator<char> > const, std::__cxx11::basic_string<char, std::char_traits<char>, std::allocator<char> > > > >::_S_value(std::_Rb_tree_node<std::pair<std::__cxx11::basic_string<char, std::char_traits<char>, std::allocator<char> > const, std::__cxx11::basic_string<char, std::char_traits<char>, std::allocator<char> > > > const*)
PUBLIC 47524 0 std::_Rb_tree<std::__cxx11::basic_string<char, std::char_traits<char>, std::allocator<char> >, std::pair<std::__cxx11::basic_string<char, std::char_traits<char>, std::allocator<char> > const, std::__cxx11::basic_string<char, std::char_traits<char>, std::allocator<char> > >, std::_Select1st<std::pair<std::__cxx11::basic_string<char, std::char_traits<char>, std::allocator<char> > const, std::__cxx11::basic_string<char, std::char_traits<char>, std::allocator<char> > > >, std::less<std::__cxx11::basic_string<char, std::char_traits<char>, std::allocator<char> > >, std::allocator<std::pair<std::__cxx11::basic_string<char, std::char_traits<char>, std::allocator<char> > const, std::__cxx11::basic_string<char, std::char_traits<char>, std::allocator<char> > > > >::_M_get_node()
PUBLIC 4754c 0 std::_Rb_tree_node_base::_Rb_tree_node_base()
PUBLIC 47558 0 __gnu_cxx::__aligned_membuf<std::pair<std::__cxx11::basic_string<char, std::char_traits<char>, std::allocator<char> > const, std::__cxx11::basic_string<char, std::char_traits<char>, std::allocator<char> > > >::__aligned_membuf()
PUBLIC 47564 0 std::_Rb_tree_node<std::pair<std::__cxx11::basic_string<char, std::char_traits<char>, std::allocator<char> > const, std::__cxx11::basic_string<char, std::char_traits<char>, std::allocator<char> > > >::_Rb_tree_node()
PUBLIC 47590 0 void std::_Rb_tree<std::__cxx11::basic_string<char, std::char_traits<char>, std::allocator<char> >, std::pair<std::__cxx11::basic_string<char, std::char_traits<char>, std::allocator<char> > const, std::__cxx11::basic_string<char, std::char_traits<char>, std::allocator<char> > >, std::_Select1st<std::pair<std::__cxx11::basic_string<char, std::char_traits<char>, std::allocator<char> > const, std::__cxx11::basic_string<char, std::char_traits<char>, std::allocator<char> > > >, std::less<std::__cxx11::basic_string<char, std::char_traits<char>, std::allocator<char> > >, std::allocator<std::pair<std::__cxx11::basic_string<char, std::char_traits<char>, std::allocator<char> > const, std::__cxx11::basic_string<char, std::char_traits<char>, std::allocator<char> > > > >::_M_construct_node<std::pair<std::__cxx11::basic_string<char, std::char_traits<char>, std::allocator<char> > const, std::__cxx11::basic_string<char, std::char_traits<char>, std::allocator<char> > > const&>(std::_Rb_tree_node<std::pair<std::__cxx11::basic_string<char, std::char_traits<char>, std::allocator<char> > const, std::__cxx11::basic_string<char, std::char_traits<char>, std::allocator<char> > > >*, std::pair<std::__cxx11::basic_string<char, std::char_traits<char>, std::allocator<char> > const, std::__cxx11::basic_string<char, std::char_traits<char>, std::allocator<char> > > const&)
PUBLIC 4763c 0 __gnu_cxx::__aligned_membuf<std::pair<std::__cxx11::basic_string<char, std::char_traits<char>, std::allocator<char> > const, std::__cxx11::basic_string<char, std::char_traits<char>, std::allocator<char> > > >::_M_addr()
PUBLIC 4764a 0 std::allocator_traits<std::allocator<std::_Rb_tree_node<std::pair<std::__cxx11::basic_string<char, std::char_traits<char>, std::allocator<char> > const, std::__cxx11::basic_string<char, std::char_traits<char>, std::allocator<char> > > > > >::allocate(std::allocator<std::_Rb_tree_node<std::pair<std::__cxx11::basic_string<char, std::char_traits<char>, std::allocator<char> > const, std::__cxx11::basic_string<char, std::char_traits<char>, std::allocator<char> > > > >&, unsigned long)
PUBLIC 47674 0 _ZNSt16allocator_traitsISaISt13_Rb_tree_nodeISt4pairIKNSt7__cxx1112basic_stringIcSt11char_traitsIcESaIcEEES7_EEEE9constructIS9_IRKS9_EEEvRSB_PT_DpOT0_
PUBLIC 476ae 0 __gnu_cxx::new_allocator<std::_Rb_tree_node<std::pair<std::__cxx11::basic_string<char, std::char_traits<char>, std::allocator<char> > const, std::__cxx11::basic_string<char, std::char_traits<char>, std::allocator<char> > > > >::allocate(unsigned long, void const*)
PUBLIC 476fa 0 std::pair<std::__cxx11::basic_string<char, std::char_traits<char>, std::allocator<char> > const, std::__cxx11::basic_string<char, std::char_traits<char>, std::allocator<char> > >::pair(std::pair<std::__cxx11::basic_string<char, std::char_traits<char>, std::allocator<char> > const, std::__cxx11::basic_string<char, std::char_traits<char>, std::allocator<char> > > const&)
PUBLIC 4775c 0 _ZN9__gnu_cxx13new_allocatorISt13_Rb_tree_nodeISt4pairIKNSt7__cxx1112basic_stringIcSt11char_traitsIcESaIcEEES8_EEE9constructISA_IRKSA_EEEvPT_DpOT0_
PUBLIC 477d0 0 __gnu_cxx::new_allocator<std::_Rb_tree_node<std::pair<std::__cxx11::basic_string<char, std::char_traits<char>, std::allocator<char> > const, std::__cxx11::basic_string<char, std::char_traits<char>, std::allocator<char> > > > >::max_size() const
PUBLIC 477e4 0 CrashupInitializationException::~CrashupInitializationException()
PUBLIC 47826 0 CrashupInitializationException::~CrashupInitializationException()
PUBLIC 4784c 0 Stats::Stats(std::__cxx11::basic_string<char, std::char_traits<char>, std::allocator<char> >, std::__cxx11::basic_string<char, std::char_traits<char>, std::allocator<char> >)
PUBLIC 47904 0 Downloader::Downloader(QString, QUrl)
PUBLIC 47a4e 0 Downloader::downloadFile()
PUBLIC 47b9a 0 Downloader::httpReadyRead()
PUBLIC 47c62 0 Downloader::startRequest(QUrl const&)
PUBLIC 47fa4 0 Downloader::httpFinished()
PUBLIC 481a6 0 Downloader::openFileForWrite(QString const&)
PUBLIC 48272 0 std::__atomic_base<int>::__atomic_base(int)
PUBLIC 4828a 0 std::atomic<int>::atomic(int)
PUBLIC 482ae 0 QBasicAtomicInteger<int>::QBasicAtomicInteger(int)
PUBLIC 482d2 0 QAtomicInteger<int>::QAtomicInteger(int)
PUBLIC 482f6 0 QAtomicInt::QAtomicInt(int)
PUBLIC 4831a 0 QtPrivate::RefCount::ref()
PUBLIC 4835c 0 QByteArray::QByteArray(QByteArray const&)
PUBLIC 4838c 0 QByteArray::operator+=(char const*)
PUBLIC 483b2 0 QByteArray::operator+=(QByteArray const&)
PUBLIC 483d7 0 operator+(QByteArray const&, char const*)
PUBLIC 48457 0 operator+(char const*, QByteArray const&)
PUBLIC 484dc 0 QString::operator+=(QString const&)
PUBLIC 48502 0 QString::QString(QString const&)
PUBLIC 48532 0 operator+(QString const&, QString const&)
PUBLIC 48594 0 operator+(QString const&, char const*)
PUBLIC 4862b 0 QtPrivate::ConnectionTypes<QtPrivate::List<>, true>::types()
PUBLIC 48636 0 QtPrivate::QSlotObjectBase::QSlotObjectBase(void (*)(int, QtPrivate::QSlotObjectBase*, QObject*, void**, bool*))
PUBLIC 48666 0 QtPrivate::QSlotObjectBase::~QSlotObjectBase()
PUBLIC 48672 0 QIODevice::write(QByteArray const&)
PUBLIC 486ba 0 QFlags<QIODevice::OpenModeFlag>::QFlags(QIODevice::OpenModeFlag)
PUBLIC 486d2 0 NoOpenedFileException::NoOpenedFileException()
PUBLIC 48706 0 QBasicAtomicInteger<int>::ref()
PUBLIC 48720 0 std::vector<int, std::allocator<int> >::vector()
PUBLIC 4873c 0 std::vector<int, std::allocator<int> >::~vector()
PUBLIC 48780 0 std::remove_reference<int&>::type&& std::move<int&>(int&)
PUBLIC 4878e 0 std::vector<int, std::allocator<int> >::push_back(int&&)
PUBLIC 487bf 0 QMetaObject::Connection QObject::connect<void (QNetworkReply::*)(), void (Downloader::*)()>(QtPrivate::FunctionPointer<void (QNetworkReply::*)()>::Object const*, void (QNetworkReply::*)(), QtPrivate::FunctionPointer<void (Downloader::*)()>::Object const*, void (Downloader::*)(), Qt::ConnectionType)
PUBLIC 48860 0 QMetaObject::Connection QObject::connect<void (QIODevice::*)(), void (Downloader::*)()>(QtPrivate::FunctionPointer<void (QIODevice::*)()>::Object const*, void (QIODevice::*)(), QtPrivate::FunctionPointer<void (Downloader::*)()>::Object const*, void (Downloader::*)(), Qt::ConnectionType)
PUBLIC 48902 0 std::vector<int, std::allocator<int> >::size() const
PUBLIC 48928 0 std::vector<int, std::allocator<int> >::operator[](unsigned long)
PUBLIC 48948 0 QScopedPointer<QFile, QScopedPointerDeleter<QFile> >::QScopedPointer(QFile*)
PUBLIC 48962 0 QScopedPointer<QFile, QScopedPointerDeleter<QFile> >::~QScopedPointer()
PUBLIC 48988 0 QScopedPointer<QFile, QScopedPointerDeleter<QFile> >::operator->() const
PUBLIC 4899a 0 QScopedPointer<QFile, QScopedPointerDeleter<QFile> >::take()
PUBLIC 489be 0 bool QAtomicOps<int>::ref<int>(std::atomic<int>&)
PUBLIC 489de 0 std::_Vector_base<int, std::allocator<int> >::_Vector_impl::~_Vector_impl()
PUBLIC 489fa 0 std::_Vector_base<int, std::allocator<int> >::_Vector_base()
PUBLIC 48a16 0 std::_Vector_base<int, std::allocator<int> >::~_Vector_base()
PUBLIC 48a66 0 std::_Vector_base<int, std::allocator<int> >::_M_get_Tp_allocator()
PUBLIC 48a74 0 void std::_Destroy<int*, int>(int*, int*, std::allocator<int>&)
PUBLIC 48a9e 0 int&& std::forward<int>(std::remove_reference<int>::type&)
PUBLIC 48aac 0 void std::vector<int, std::allocator<int> >::emplace_back<int>(int&&)
PUBLIC 48b2e 0 QtPrivate::QSlotObject<void (Downloader::*)(), QtPrivate::List<>, void>::QSlotObject(void (Downloader::*)())
PUBLIC 48b78 0 QScopedPointerDeleter<QFile>::cleanup(QFile*)
PUBLIC 48ba6 0 std::__atomic_base<int>::operator++()
PUBLIC 48bc0 0 std::_Vector_base<int, std::allocator<int> >::_Vector_impl::_Vector_impl()
PUBLIC 48bfe 0 std::allocator<int>::~allocator()
PUBLIC 48c1a 0 std::_Vector_base<int, std::allocator<int> >::_M_deallocate(int*, unsigned long)
PUBLIC 48c4f 0 void std::_Destroy<int*>(int*, int*)
PUBLIC 48c75 0 void std::allocator_traits<std::allocator<int> >::construct<int, int>(std::allocator<int>&, int*, int&&)
PUBLIC 48cae 0 void std::vector<int, std::allocator<int> >::_M_emplace_back_aux<int>(int&&)
PUBLIC 48e9a 0 QtPrivate::QSlotObject<void (Downloader::*)(), QtPrivate::List<>, void>::~QSlotObject()
PUBLIC 48eb5 0 QtPrivate::QSlotObject<void (Downloader::*)(), QtPrivate::List<>, void>::impl(int, QtPrivate::QSlotObjectBase*, QObject*, void**, bool*)
PUBLIC 48f76 0 std::allocator<int>::allocator()
PUBLIC 48f92 0 __gnu_cxx::new_allocator<int>::~new_allocator()
PUBLIC 48f9d 0 std::allocator_traits<std::allocator<int> >::deallocate(std::allocator<int>&, int*, unsigned long)
PUBLIC 48fcb 0 void std::_Destroy_aux<true>::__destroy<int*>(int*, int*)
PUBLIC 48fda 0 void __gnu_cxx::new_allocator<int>::construct<int, int>(int*, int&&)
PUBLIC 4901e 0 std::vector<int, std::allocator<int> >::_M_check_len(unsigned long, char const*) const
PUBLIC 490e8 0 std::_Vector_base<int, std::allocator<int> >::_M_allocate(unsigned long)
PUBLIC 4911b 0 int* std::__uninitialized_move_if_noexcept_a<int*, int*, std::allocator<int> >(int*, int*, int*, std::allocator<int>&)
PUBLIC 4916f 0 void std::allocator_traits<std::allocator<int> >::destroy<int>(std::allocator<int>&, int*)
PUBLIC 49195 0 void QtPrivate::FunctionPointer<void (Downloader::*)()>::call<QtPrivate::List<>, void>(void (Downloader::*)(), Downloader*, void**)
PUBLIC 491da 0 __gnu_cxx::new_allocator<int>::new_allocator()
PUBLIC 491e6 0 __gnu_cxx::new_allocator<int>::deallocate(int*, unsigned long)
PUBLIC 4920a 0 std::vector<int, std::allocator<int> >::max_size() const
PUBLIC 4922c 0 unsigned long const& std::max<unsigned long>(unsigned long const&, unsigned long const&)
PUBLIC 49257 0 std::allocator_traits<std::allocator<int> >::allocate(std::allocator<int>&, unsigned long)
PUBLIC 49281 0 std::move_iterator<int*> std::__make_move_if_noexcept_iterator<int*, std::move_iterator<int*> >(int*)
PUBLIC 492a6 0 int* std::__uninitialized_copy_a<std::move_iterator<int*>, int*, int>(std::move_iterator<int*>, std::move_iterator<int*>, int*, std::allocator<int>&)
PUBLIC 492d8 0 void __gnu_cxx::new_allocator<int>::destroy<int>(int*)
PUBLIC 492e7 0 QtPrivate::FunctorCall<QtPrivate::IndexesList<>, QtPrivate::List<>, void, void (Downloader::*)()>::call(void (Downloader::*)(), Downloader*, void**)
PUBLIC 4936b 0 std::allocator_traits<std::allocator<int> >::max_size(std::allocator<int> const&)
PUBLIC 49386 0 std::_Vector_base<int, std::allocator<int> >::_M_get_Tp_allocator() const
PUBLIC 49394 0 __gnu_cxx::new_allocator<int>::allocate(unsigned long, void const*)
PUBLIC 493d6 0 std::move_iterator<int*>::move_iterator(int*)
PUBLIC 493f0 0 int* std::uninitialized_copy<std::move_iterator<int*>, int*>(std::move_iterator<int*>, std::move_iterator<int*>, int*)
PUBLIC 49422 0 QtPrivate::ApplyReturnValue<void>::ApplyReturnValue(void*)
PUBLIC 4943c 0 __gnu_cxx::new_allocator<int>::max_size() const
PUBLIC 49450 0 int* std::__uninitialized_copy<true>::__uninit_copy<std::move_iterator<int*>, int*>(std::move_iterator<int*>, std::move_iterator<int*>, int*)
PUBLIC 4947d 0 int* std::copy<std::move_iterator<int*>, int*>(std::move_iterator<int*>, std::move_iterator<int*>, int*)
PUBLIC 494c9 0 std::_Miter_base<std::move_iterator<int*> >::iterator_type std::__miter_base<std::move_iterator<int*> >(std::move_iterator<int*>)
PUBLIC 494e3 0 int* std::__copy_move_a2<true, int*, int*>(int*, int*, int*)
PUBLIC 4953b 0 std::_Iter_base<std::move_iterator<int*>, true>::_S_base(std::move_iterator<int*>)
PUBLIC 49555 0 std::_Niter_base<int*>::iterator_type std::__niter_base<int*>(int*)
PUBLIC 4956f 0 int* std::__copy_move_a<true, int*, int*>(int*, int*, int*)
PUBLIC 495a0 0 std::move_iterator<int*>::base() const
PUBLIC 495b1 0 std::_Iter_base<int*, false>::_S_base(int*)
PUBLIC 495bf 0 int* std::__copy_move<true, true, std::random_access_iterator_tag>::__copy_m<int>(int const*, int const*, int*)
PUBLIC 49624 0 NoOpenedFileException::~NoOpenedFileException()
PUBLIC 49666 0 NoOpenedFileException::~NoOpenedFileException()
PUBLIC 4968c 0 Downloader::qt_static_metacall(QObject*, QMetaObject::Call, int, void**)
PUBLIC 497e8 0 Downloader::metaObject() const
PUBLIC 49830 0 Downloader::qt_metacast(char const*)
PUBLIC 49880 0 Downloader::qt_metacall(QMetaObject::Call, int, void**)
PUBLIC 49904 0 Downloader::downloadFinished(QString)
PUBLIC 4994e 0 Downloader::~Downloader()
PUBLIC 499d0 0 Downloader::~Downloader()
PUBLIC 499f6 0 crash_handling::dumpCallback(google_breakpad::MinidumpDescriptor const&, void*, bool)
PUBLIC 49a7a 0 crash_handling::CrashHandlerPrivate::initCrashHandlerPrivate(std::__cxx11::basic_string<char, std::char_traits<char>, std::allocator<char> > const&)
PUBLIC 49b8c 0 crash_handling::CrashHandler::CrashHandler()
PUBLIC 49bbe 0 crash_handling::CrashHandler::~CrashHandler()
PUBLIC 49bf0 0 crash_handling::CrashHandler::instance()
PUBLIC 49c82 0 crash_handling::CrashHandler::init(std::__cxx11::basic_string<char, std::char_traits<char>, std::allocator<char> > const&)
PUBLIC 49cac 0 crash_handling::CrashHandler::setReportCrashesToSystem(bool)
PUBLIC 49cca 0 crash_handling::CrashHandler::writeMinidump()
PUBLIC 49d60 0 google_breakpad::MicrodumpExtraInfo::MicrodumpExtraInfo()
PUBLIC 49d8e 0 google_breakpad::MinidumpDescriptor::MinidumpDescriptor(std::__cxx11::basic_string<char, std::char_traits<char>, std::allocator<char> > const&)
PUBLIC 49e34 0 google_breakpad::MinidumpDescriptor::path() const
PUBLIC 49e46 0 crash_handling::CrashHandlerPrivate::CrashHandlerPrivate()
PUBLIC 49e52 0 crash_handling::CrashHandlerPrivate::~CrashHandlerPrivate()
PUBLIC 49e5e 0 google_breakpad::MinidumpDescriptor::~MinidumpDescriptor()
PUBLIC 49e8e 0 crash_handling::CrashUploaderPrivate::CrashUploaderPrivate(QString const&, QString const&, QString const&)
PUBLIC 49f12 0 crash_handling::CrashUploaderPrivate::uploadMinidumpPrivate(QString const&)
PUBLIC 4a7e8 0 crash_handling::CrashUploader::CrashUploader(QString const&, QString const&, QString const&, QString const&)
PUBLIC 4ab14 0 crash_handling::CrashUploader::~CrashUploader()
PUBLIC 4abdc 0 crash_handling::CrashUploader::~CrashUploader()
PUBLIC 4ac02 0 crash_handling::CrashUploader::saveJson(QString const&, QString const&)
PUBLIC 4b0dc 0 crash_handling::CrashUploader::uploadFinished(bool, QString const&, QString const&)
PUBLIC 4b598 0 crash_handling::CrashUploader::uploadPendingMinidumps()
PUBLIC 4b77f 0 qstrnlen(char const*, unsigned int)
PUBLIC 4b7ce 0 QString::toUtf8() const &
PUBLIC 4b7f8 0 QString::QString(QByteArray const&)
PUBLIC 4b858 0 QString::operator+=(char const*)
PUBLIC 4b8ca 0 QListSpecialMethods<QString>::~QListSpecialMethods()
PUBLIC 4b8d6 0 QStringList::QStringList()
PUBLIC 4b8f2 0 QStringList::~QStringList()
PUBLIC 4b90e 0 QStringList::operator<<(QString const&)
PUBLIC 4b938 0 QFlags<QDir::Filter>::QFlags(QDir::Filter)
PUBLIC 4b950 0 QFlags<QDir::SortFlag>::QFlags(QDir::SortFlag)
PUBLIC 4b968 0 TODOException::TODOException(char const*)
PUBLIC 4b9a0 0 UnexpectedHttpResponseException::UnexpectedHttpResponseException()
PUBLIC 4b9d4 0 std::initializer_list<QPair<QString, QJsonValue> >::begin() const
PUBLIC 4b9e6 0 std::initializer_list<QPair<QString, QJsonValue> >::size() const
PUBLIC 4b9f8 0 std::initializer_list<QPair<QString, QJsonValue> >::end() const
PUBLIC 4ba2e 0 QJsonObject::QJsonObject(std::initializer_list<QPair<QString, QJsonValue> >)
PUBLIC 4baa4 0 QJsonArray::operator<<(QJsonValue const&)
PUBLIC 4bace 0 google_breakpad::GoogleCrashdumpUploader::~GoogleCrashdumpUploader()
PUBLIC 4bbba 0 QPair<QString, QJsonValue>::QPair(QString const&, QJsonValue const&)
PUBLIC 4bc1c 0 QPair<QString, QJsonValue>::~QPair()
PUBLIC 4bc48 0 QListSpecialMethods<QString>::QListSpecialMethods()
PUBLIC 4bc54 0 QList<QString>::QList()
PUBLIC 4bc7e 0 QList<QString>::~QList()
PUBLIC 4bcc6 0 QList<QString>::append(QString const&)
PUBLIC 4bdbe 0 google_breakpad::scoped_ptr<google_breakpad::LibcurlWrapper>::~scoped_ptr()
PUBLIC 4bdf6 0 QMetaObject::Connection QObject::connect<void (QThread::*)(QThread::QPrivateSignal), void (QObject::*)()>(QtPrivate::FunctionPointer<void (QThread::*)(QThread::QPrivateSignal)>::Object const*, void (QThread::*)(QThread::QPrivateSignal), QtPrivate::FunctionPointer<void (QObject::*)()>::Object const*, void (QObject::*)(), Qt::ConnectionType)
PUBLIC 4be97 0 QMetaObject::Connection QObject::connect<void (crash_handling::CrashUploader::*)(QString const&), void (crash_handling::CrashUploaderPrivate::*)(QString const&)>(QtPrivate::FunctionPointer<void (crash_handling::CrashUploader::*)(QString const&)>::Object const*, void (crash_handling::CrashUploader::*)(QString const&), QtPrivate::FunctionPointer<void (crash_handling::CrashUploaderPrivate::*)(QString const&)>::Object const*, void (crash_handling::CrashUploaderPrivate::*)(QString const&), Qt::ConnectionType)
PUBLIC 4bf38 0 QMetaObject::Connection QObject::connect<void (crash_handling::CrashUploaderPrivate::*)(bool, QString const&, QString const&), void (crash_handling::CrashUploader::*)(bool, QString const&, QString const&)>(QtPrivate::FunctionPointer<void (crash_handling::CrashUploaderPrivate::*)(bool, QString const&, QString const&)>::Object const*, void (crash_handling::CrashUploaderPrivate::*)(bool, QString const&, QString const&), QtPrivate::FunctionPointer<void (crash_handling::CrashUploader::*)(bool, QString const&, QString const&)>::Object const*, void (crash_handling::CrashUploader::*)(bool, QString const&, QString const&), Qt::ConnectionType)
PUBLIC 4bfda 0 QList<QFileInfo>::~QList()
PUBLIC 4c022 0 QList<QFileInfo>::begin()
PUBLIC 4c062 0 QList<QFileInfo>::end()
PUBLIC 4c0a2 0 QList<QFileInfo>::iterator::operator!=(QList<QFileInfo>::iterator const&) const
PUBLIC 4c0c4 0 QList<QFileInfo>::iterator::operator++()
PUBLIC 4c0e4 0 QList<QFileInfo>::iterator::operator*() const
PUBLIC 4c102 0 QList<QString>::dealloc(QListData::Data*)
PUBLIC 4c160 0 QList<QString>::detach_helper_grow(int, int)
PUBLIC 4c336 0 QList<QString>::node_construct(QList<QString>::Node*, QString const&)
PUBLIC 4c372 0 QList<QString>::node_destruct(QList<QString>::Node*)
PUBLIC 4c392 0 QList<QString>::node_copy(QList<QString>::Node*, QList<QString>::Node*, QList<QString>::Node*)
PUBLIC 4c3f0 0 QtPrivate::ConnectionTypes<QtPrivate::List<QThread::QPrivateSignal>, false>::types()
PUBLIC 4c3fc 0 QtPrivate::QSlotObject<void (QObject::*)(), QtPrivate::List<>, void>::QSlotObject(void (QObject::*)())
PUBLIC 4c446 0 QtPrivate::ConnectionTypes<QtPrivate::List<QString const&>, true>::types()
PUBLIC 4c454 0 QtPrivate::QSlotObject<void (crash_handling::CrashUploaderPrivate::*)(QString const&), QtPrivate::List<QString const&>, void>::QSlotObject(void (crash_handling::CrashUploaderPrivate::*)(QString const&))
PUBLIC 4c49e 0 QtPrivate::ConnectionTypes<QtPrivate::List<bool, QString const&, QString const&>, true>::types()
PUBLIC 4c4ac 0 QtPrivate::QSlotObject<void (crash_handling::CrashUploader::*)(bool, QString const&, QString const&), QtPrivate::List<bool, QString const&, QString const&>, void>::QSlotObject(void (crash_handling::CrashUploader::*)(bool, QString const&, QString const&))
PUBLIC 4c4f6 0 QListSpecialMethods<QFileInfo>::~QListSpecialMethods()
PUBLIC 4c502 0 QList<QFileInfo>::dealloc(QListData::Data*)
PUBLIC 4c560 0 QList<QFileInfo>::detach()
PUBLIC 4c58e 0 QList<QFileInfo>::iterator::iterator(QList<QFileInfo>::Node*)
PUBLIC 4c5a8 0 QList<QFileInfo>::Node::t()
PUBLIC 4c5b6 0 QList<QString>::node_destruct(QList<QString>::Node*, QList<QString>::Node*)
PUBLIC 4c5ea 0 QtPrivate::QSlotObject<void (QObject::*)(), QtPrivate::List<>, void>::~QSlotObject()
PUBLIC 4c605 0 QtPrivate::QSlotObject<void (QObject::*)(), QtPrivate::List<>, void>::impl(int, QtPrivate::QSlotObjectBase*, QObject*, void**, bool*)
PUBLIC 4c6c6 0 QtPrivate::QSlotObject<void (crash_handling::CrashUploaderPrivate::*)(QString const&), QtPrivate::List<QString const&>, void>::~QSlotObject()
PUBLIC 4c6e1 0 QtPrivate::QSlotObject<void (crash_handling::CrashUploaderPrivate::*)(QString const&), QtPrivate::List<QString const&>, void>::impl(int, QtPrivate::QSlotObjectBase*, QObject*, void**, bool*)
PUBLIC 4c7a2 0 QtPrivate::QSlotObject<void (crash_handling::CrashUploader::*)(bool, QString const&, QString const&), QtPrivate::List<bool, QString const&, QString const&>, void>::~QSlotObject()
PUBLIC 4c7bd 0 QtPrivate::QSlotObject<void (crash_handling::CrashUploader::*)(bool, QString const&, QString const&), QtPrivate::List<bool, QString const&, QString const&>, void>::impl(int, QtPrivate::QSlotObjectBase*, QObject*, void**, bool*)
PUBLIC 4c87e 0 QList<QFileInfo>::node_destruct(QList<QFileInfo>::Node*, QList<QFileInfo>::Node*)
PUBLIC 4c8b2 0 QList<QFileInfo>::detach_helper()
PUBLIC 4c8d9 0 void QtPrivate::FunctionPointer<void (QObject::*)()>::call<QtPrivate::List<>, void>(void (QObject::*)(), QObject*, void**)
PUBLIC 4c91e 0 void QtPrivate::FunctionPointer<void (crash_handling::CrashUploaderPrivate::*)(QString const&)>::call<QtPrivate::List<QString const&>, void>(void (crash_handling::CrashUploaderPrivate::*)(QString const&), crash_handling::CrashUploaderPrivate*, void**)
PUBLIC 4c963 0 void QtPrivate::FunctionPointer<void (crash_handling::CrashUploader::*)(bool, QString const&, QString const&)>::call<QtPrivate::List<bool, QString const&, QString const&>, void>(void (crash_handling::CrashUploader::*)(bool, QString const&, QString const&), crash_handling::CrashUploader*, void**)
PUBLIC 4c9a8 0 QList<QFileInfo>::detach_helper(int)
PUBLIC 4ca78 0 QtPrivate::FunctorCall<QtPrivate::IndexesList<>, QtPrivate::List<>, void, void (QObject::*)()>::call(void (QObject::*)(), QObject*, void**)
PUBLIC 4cafc 0 QtPrivate::FunctorCall<QtPrivate::IndexesList<0>, QtPrivate::List<QString const&>, void, void (crash_handling::CrashUploaderPrivate::*)(QString const&)>::call(void (crash_handling::CrashUploaderPrivate::*)(QString const&), crash_handling::CrashUploaderPrivate*, void**)
PUBLIC 4cb8e 0 QtPrivate::FunctorCall<QtPrivate::IndexesList<0, 1, 2>, QtPrivate::List<bool, QString const&, QString const&>, void, void (crash_handling::CrashUploader::*)(bool, QString const&, QString const&)>::call(void (crash_handling::CrashUploader::*)(bool, QString const&, QString const&), crash_handling::CrashUploader*, void**)
PUBLIC 4cc38 0 QList<QFileInfo>::node_copy(QList<QFileInfo>::Node*, QList<QFileInfo>::Node*, QList<QFileInfo>::Node*)
PUBLIC 4cd02 0 UnexpectedHttpResponseException::~UnexpectedHttpResponseException()
PUBLIC 4cd44 0 UnexpectedHttpResponseException::~UnexpectedHttpResponseException()
PUBLIC 4cd6a 0 TODOException::~TODOException()
PUBLIC 4cdac 0 TODOException::~TODOException()
PUBLIC 4cdd2 0 crash_handling::CrashUploaderPrivate::qt_static_metacall(QObject*, QMetaObject::Call, int, void**)
PUBLIC 4ceb0 0 crash_handling::CrashUploaderPrivate::metaObject() const
PUBLIC 4cef8 0 crash_handling::CrashUploaderPrivate::qt_metacast(char const*)
PUBLIC 4cf48 0 crash_handling::CrashUploaderPrivate::qt_metacall(QMetaObject::Call, int, void**)
PUBLIC 4cfcc 0 crash_handling::CrashUploaderPrivate::resultReady(bool, QString const&, QString const&)
PUBLIC 4d040 0 crash_handling::CrashUploader::qt_static_metacall(QObject*, QMetaObject::Call, int, void**)
PUBLIC 4d120 0 crash_handling::CrashUploader::metaObject() const
PUBLIC 4d168 0 crash_handling::CrashUploader::qt_metacast(char const*)
PUBLIC 4d1b8 0 crash_handling::CrashUploader::qt_metacall(QMetaObject::Call, int, void**)
PUBLIC 4d23c 0 crash_handling::CrashUploader::uploadMinidump(QString const&)
PUBLIC 4d286 0 crash_handling::CrashUploaderPrivate::~CrashUploaderPrivate()
PUBLIC 4d2f8 0 crash_handling::CrashUploaderPrivate::~CrashUploaderPrivate()
PUBLIC 4d31e 0 sys_clone
PUBLIC 4d3d8 0 sys_close
PUBLIC 4d421 0 sys_getpid
PUBLIC 4d45e 0 sys__gettid
PUBLIC 4d49b 0 sys_munmap
PUBLIC 4d4eb 0 sys_prctl
PUBLIC 4d55d 0 sys_read
PUBLIC 4d5b3 0 sys_sigaltstack
PUBLIC 4d603 0 sys_write
PUBLIC 4d659 0 sys_mmap
PUBLIC 4d6e1 0 sys_wait4
PUBLIC 4d743 0 sys_waitpid
PUBLIC 4d76d 0 sys_pipe
PUBLIC 4d7b5 0 sys_gettid
PUBLIC 4d7d7 0 tgkill(int, int, int)
PUBLIC 4d804 0 google_breakpad::(anonymous namespace)::InstallAlternateStackLocked()
PUBLIC 4d948 0 google_breakpad::(anonymous namespace)::RestoreAlternateStackLocked()
PUBLIC 4d9f9 0 google_breakpad::(anonymous namespace)::InstallDefaultHandler(int)
PUBLIC 4da16 0 google_breakpad::ExceptionHandler::ExceptionHandler(google_breakpad::MinidumpDescriptor const&, bool (*)(void*), bool (*)(google_breakpad::MinidumpDescriptor const&, void*, bool), void*, bool, int)
PUBLIC 4dc24 0 google_breakpad::ExceptionHandler::~ExceptionHandler()
PUBLIC 4dd44 0 google_breakpad::ExceptionHandler::InstallHandlersLocked()
PUBLIC 4dea4 0 google_breakpad::ExceptionHandler::RestoreHandlersLocked()
PUBLIC 4df50 0 google_breakpad::ExceptionHandler::SignalHandler(int, siginfo_t*, void*)
PUBLIC 4e124 0 google_breakpad::ExceptionHandler::ThreadEntry(void*)
PUBLIC 4e176 0 google_breakpad::ExceptionHandler::HandleSignal(int, siginfo_t*, void*)
PUBLIC 4e340 0 google_breakpad::ExceptionHandler::SimulateSignalDelivery(int)
PUBLIC 4e3ac 0 google_breakpad::ExceptionHandler::GenerateDump(google_breakpad::ExceptionHandler::CrashContext*)
PUBLIC 4e74e 0 google_breakpad::ExceptionHandler::SendContinueSignalToChild()
PUBLIC 4e7fe 0 google_breakpad::ExceptionHandler::WaitForContinueSignal()
PUBLIC 4e8ae 0 google_breakpad::ExceptionHandler::DoDump(int, void const*, unsigned long)
PUBLIC 4e9fc 0 google_breakpad::ExceptionHandler::WriteMinidump(std::__cxx11::basic_string<char, std::char_traits<char>, std::allocator<char> > const&, bool (*)(google_breakpad::MinidumpDescriptor const&, void*, bool), void*)
PUBLIC 4ead4 0 google_breakpad::ExceptionHandler::WriteMinidump()
PUBLIC 4ec7e 0 google_breakpad::ExceptionHandler::AddMappingInfo(std::__cxx11::basic_string<char, std::char_traits<char>, std::allocator<char> > const&, unsigned char const*, unsigned long, unsigned long, unsigned long)
PUBLIC 4ed7e 0 google_breakpad::ExceptionHandler::RegisterAppMemory(void*, unsigned long)
PUBLIC 4ee34 0 google_breakpad::ExceptionHandler::UnregisterAppMemory(void*)
PUBLIC 4eee8 0 google_breakpad::ExceptionHandler::WriteMinidumpForChild(int, int, std::__cxx11::basic_string<char, std::char_traits<char>, std::allocator<char> > const&, bool (*)(google_breakpad::MinidumpDescriptor const&, void*, bool), void*)
PUBLIC 4efce 0 google_breakpad::MinidumpDescriptor::IsFD() const
PUBLIC 4efe4 0 google_breakpad::MinidumpDescriptor::fd() const
PUBLIC 4eff6 0 google_breakpad::MinidumpDescriptor::IsMicrodumpOnConsole() const
PUBLIC 4f00c 0 google_breakpad::MinidumpDescriptor::size_limit() const
PUBLIC 4f01e 0 google_breakpad::MinidumpDescriptor::microdump_extra_info()
PUBLIC 4f064 0 google_breakpad::PageAllocator::PageAllocator()
PUBLIC 4f0b2 0 google_breakpad::PageAllocator::~PageAllocator()
PUBLIC 4f0ce 0 google_breakpad::PageAllocator::Alloc(unsigned long)
PUBLIC 4f24a 0 google_breakpad::PageAllocator::GetNPages(unsigned long)
PUBLIC 4f2e8 0 google_breakpad::PageAllocator::FreeAll()
PUBLIC 4f342 0 google_breakpad::AppMemory::operator==(void const*) const
PUBLIC 4f35e 0 google_breakpad::ExceptionHandler::IsOutOfProcess() const
PUBLIC 4f382 0 std::__cxx11::list<google_breakpad::MappingEntry, std::allocator<google_breakpad::MappingEntry> >::~list()
PUBLIC 4f39e 0 std::__cxx11::list<google_breakpad::AppMemory, std::allocator<google_breakpad::AppMemory> >::~list()
PUBLIC 4f3ba 0 google_breakpad::scoped_ptr<google_breakpad::CrashGenerationClient>::reset(google_breakpad::CrashGenerationClient*)
PUBLIC 4f40e 0 google_breakpad::scoped_ptr<google_breakpad::CrashGenerationClient>::get() const
PUBLIC 4f41f 0 int const& std::max<int>(int const&, int const&)
PUBLIC 4f448 0 google_breakpad::scoped_ptr<google_breakpad::CrashGenerationClient>::scoped_ptr(google_breakpad::CrashGenerationClient*)
PUBLIC 4f462 0 google_breakpad::scoped_ptr<google_breakpad::CrashGenerationClient>::~scoped_ptr()
PUBLIC 4f49a 0 std::__cxx11::list<google_breakpad::MappingEntry, std::allocator<google_breakpad::MappingEntry> >::list()
PUBLIC 4f4b6 0 std::__cxx11::_List_base<google_breakpad::MappingEntry, std::allocator<google_breakpad::MappingEntry> >::_List_impl::~_List_impl()
PUBLIC 4f4d2 0 std::__cxx11::_List_base<google_breakpad::MappingEntry, std::allocator<google_breakpad::MappingEntry> >::~_List_base()
PUBLIC 4f4fa 0 std::__cxx11::list<google_breakpad::AppMemory, std::allocator<google_breakpad::AppMemory> >::list()
PUBLIC 4f516 0 std::__cxx11::_List_base<google_breakpad::AppMemory, std::allocator<google_breakpad::AppMemory> >::_List_impl::~_List_impl()
PUBLIC 4f532 0 std::__cxx11::_List_base<google_breakpad::AppMemory, std::allocator<google_breakpad::AppMemory> >::~_List_base()
PUBLIC 4f55a 0 std::vector<google_breakpad::ExceptionHandler*, std::allocator<google_breakpad::ExceptionHandler*> >::vector()
PUBLIC 4f575 0 std::remove_reference<google_breakpad::ExceptionHandler*&>::type&& std::move<google_breakpad::ExceptionHandler*&>(google_breakpad::ExceptionHandler*&)
PUBLIC 4f584 0 std::vector<google_breakpad::ExceptionHandler*, std::allocator<google_breakpad::ExceptionHandler*> >::push_back(google_breakpad::ExceptionHandler*&&)
PUBLIC 4f5b6 0 std::vector<google_breakpad::ExceptionHandler*, std::allocator<google_breakpad::ExceptionHandler*> >::begin()
PUBLIC 4f5dc 0 std::vector<google_breakpad::ExceptionHandler*, std::allocator<google_breakpad::ExceptionHandler*> >::end()
PUBLIC 4f605 0 __gnu_cxx::__normal_iterator<google_breakpad::ExceptionHandler**, std::vector<google_breakpad::ExceptionHandler*, std::allocator<google_breakpad::ExceptionHandler*> > > std::find<__gnu_cxx::__normal_iterator<google_breakpad::ExceptionHandler**, std::vector<google_breakpad::ExceptionHandler*, std::allocator<google_breakpad::ExceptionHandler*> > >, google_breakpad::ExceptionHandler*>(__gnu_cxx::__normal_iterator<google_breakpad::ExceptionHandler**, std::vector<google_breakpad::ExceptionHandler*, std::allocator<google_breakpad::ExceptionHandler*> > >, __gnu_cxx::__normal_iterator<google_breakpad::ExceptionHandler**, std::vector<google_breakpad::ExceptionHandler*, std::allocator<google_breakpad::ExceptionHandler*> > >, google_breakpad::ExceptionHandler* const&)
PUBLIC 4f63e 0 __gnu_cxx::__normal_iterator<google_breakpad::ExceptionHandler* const*, std::vector<google_breakpad::ExceptionHandler*, std::allocator<google_breakpad::ExceptionHandler*> > >::__normal_iterator<google_breakpad::ExceptionHandler**>(__gnu_cxx::__normal_iterator<google_breakpad::ExceptionHandler**, __gnu_cxx::__enable_if<std::__are_same<google_breakpad::ExceptionHandler**, google_breakpad::ExceptionHandler**>::__value, std::vector<google_breakpad::ExceptionHandler*, std::allocator<google_breakpad::ExceptionHandler*> > >::__type> const&)
PUBLIC 4f668 0 std::vector<google_breakpad::ExceptionHandler*, std::allocator<google_breakpad::ExceptionHandler*> >::erase(__gnu_cxx::__normal_iterator<google_breakpad::ExceptionHandler* const*, std::vector<google_breakpad::ExceptionHandler*, std::allocator<google_breakpad::ExceptionHandler*> > >)
PUBLIC 4f6d8 0 std::vector<google_breakpad::ExceptionHandler*, std::allocator<google_breakpad::ExceptionHandler*> >::empty() const
PUBLIC 4f71a 0 std::vector<google_breakpad::ExceptionHandler*, std::allocator<google_breakpad::ExceptionHandler*> >::~vector()
PUBLIC 4f75e 0 std::vector<google_breakpad::ExceptionHandler*, std::allocator<google_breakpad::ExceptionHandler*> >::size() const
PUBLIC 4f784 0 std::vector<google_breakpad::ExceptionHandler*, std::allocator<google_breakpad::ExceptionHandler*> >::operator[](unsigned long)
PUBLIC 4f7a4 0 google_breakpad::scoped_ptr<google_breakpad::CrashGenerationClient>::operator->() const
PUBLIC 4f7e4 0 void google_breakpad::ignore_result<int>(int const&)
PUBLIC 4f7f0 0 std::__cxx11::list<google_breakpad::MappingEntry, std::allocator<google_breakpad::MappingEntry> >::push_back(google_breakpad::MappingEntry const&)
PUBLIC 4f826 0 std::__cxx11::list<google_breakpad::AppMemory, std::allocator<google_breakpad::AppMemory> >::begin()
PUBLIC 4f84e 0 std::__cxx11::list<google_breakpad::AppMemory, std::allocator<google_breakpad::AppMemory> >::end()
PUBLIC 4f873 0 std::_List_iterator<google_breakpad::AppMemory> std::find<std::_List_iterator<google_breakpad::AppMemory>, void*>(std::_List_iterator<google_breakpad::AppMemory>, std::_List_iterator<google_breakpad::AppMemory>, void* const&)
PUBLIC 4f8ac 0 std::_List_iterator<google_breakpad::AppMemory>::operator!=(std::_List_iterator<google_breakpad::AppMemory> const&) const
PUBLIC 4f8ce 0 std::__cxx11::list<google_breakpad::AppMemory, std::allocator<google_breakpad::AppMemory> >::push_back(google_breakpad::AppMemory const&)
PUBLIC 4f904 0 std::_List_const_iterator<google_breakpad::AppMemory>::_List_const_iterator(std::_List_iterator<google_breakpad::AppMemory> const&)
PUBLIC 4f922 0 std::__cxx11::list<google_breakpad::AppMemory, std::allocator<google_breakpad::AppMemory> >::erase(std::_List_const_iterator<google_breakpad::AppMemory>)
PUBLIC 4f96c 0 std::__cxx11::_List_base<google_breakpad::MappingEntry, std::allocator<google_breakpad::MappingEntry> >::_List_base()
PUBLIC 4f994 0 std::allocator<std::_List_node<google_breakpad::MappingEntry> >::~allocator()
PUBLIC 4f9b0 0 std::__cxx11::_List_base<google_breakpad::MappingEntry, std::allocator<google_breakpad::MappingEntry> >::_M_clear()
PUBLIC 4fa1a 0 std::__cxx11::_List_base<google_breakpad::AppMemory, std::allocator<google_breakpad::AppMemory> >::_List_base()
PUBLIC 4fa42 0 std::allocator<std::_List_node<google_breakpad::AppMemory> >::~allocator()
PUBLIC 4fa5e 0 std::__cxx11::_List_base<google_breakpad::AppMemory, std::allocator<google_breakpad::AppMemory> >::_M_clear()
PUBLIC 4fac8 0 std::_Vector_base<google_breakpad::ExceptionHandler*, std::allocator<google_breakpad::ExceptionHandler*> >::_Vector_impl::~_Vector_impl()
PUBLIC 4fae4 0 std::_Vector_base<google_breakpad::ExceptionHandler*, std::allocator<google_breakpad::ExceptionHandler*> >::_Vector_base()
PUBLIC 4fb00 0 std::_Vector_base<google_breakpad::ExceptionHandler*, std::allocator<google_breakpad::ExceptionHandler*> >::~_Vector_base()
PUBLIC 4fb50 0 google_breakpad::ExceptionHandler*&& std::forward<google_breakpad::ExceptionHandler*>(std::remove_reference<google_breakpad::ExceptionHandler*>::type&)
PUBLIC 4fb5e 0 void std::vector<google_breakpad::ExceptionHandler*, std::allocator<google_breakpad::ExceptionHandler*> >::emplace_back<google_breakpad::ExceptionHandler*>(google_breakpad::ExceptionHandler*&&)
PUBLIC 4fbe0 0 __gnu_cxx::__normal_iterator<google_breakpad::ExceptionHandler**, std::vector<google_breakpad::ExceptionHandler*, std::allocator<google_breakpad::ExceptionHandler*> > >::__normal_iterator(google_breakpad::ExceptionHandler** const&)
PUBLIC 4fbfd 0 __gnu_cxx::__ops::_Iter_equals_val<google_breakpad::ExceptionHandler* const> __gnu_cxx::__ops::__iter_equals_val<google_breakpad::ExceptionHandler* const>(google_breakpad::ExceptionHandler* const&)
PUBLIC 4fc22 0 __gnu_cxx::__normal_iterator<google_breakpad::ExceptionHandler**, std::vector<google_breakpad::ExceptionHandler*, std::allocator<google_breakpad::ExceptionHandler*> > > std::__find_if<__gnu_cxx::__normal_iterator<google_breakpad::ExceptionHandler**, std::vector<google_breakpad::ExceptionHandler*, std::allocator<google_breakpad::ExceptionHandler*> > >, __gnu_cxx::__ops::_Iter_equals_val<google_breakpad::ExceptionHandler* const> >(__gnu_cxx::__normal_iterator<google_breakpad::ExceptionHandler**, std::vector<google_breakpad::ExceptionHandler*, std::allocator<google_breakpad::ExceptionHandler*> > >, __gnu_cxx::__normal_iterator<google_breakpad::ExceptionHandler**, std::vector<google_breakpad::ExceptionHandler*, std::allocator<google_breakpad::ExceptionHandler*> > >, __gnu_cxx::__ops::_Iter_equals_val<google_breakpad::ExceptionHandler* const>)
PUBLIC 4fc6a 0 __gnu_cxx::__normal_iterator<google_breakpad::ExceptionHandler**, std::vector<google_breakpad::ExceptionHandler*, std::allocator<google_breakpad::ExceptionHandler*> > >::base() const
PUBLIC 4fc78 0 std::vector<google_breakpad::ExceptionHandler*, std::allocator<google_breakpad::ExceptionHandler*> >::cbegin() const
PUBLIC 4fca8 0 __gnu_cxx::__normal_iterator<google_breakpad::ExceptionHandler* const*, std::vector<google_breakpad::ExceptionHandler*, std::allocator<google_breakpad::ExceptionHandler*> > >::difference_type __gnu_cxx::operator-<google_breakpad::ExceptionHandler* const*, std::vector<google_breakpad::ExceptionHandler*, std::allocator<google_breakpad::ExceptionHandler*> > >(__gnu_cxx::__normal_iterator<google_breakpad::ExceptionHandler* const*, std::vector<google_breakpad::ExceptionHandler*, std::allocator<google_breakpad::ExceptionHandler*> > > const&, __gnu_cxx::__normal_iterator<google_breakpad::ExceptionHandler* const*, std::vector<google_breakpad::ExceptionHandler*, std::allocator<google_breakpad::ExceptionHandler*> > > const&)
PUBLIC 4fcec 0 __gnu_cxx::__normal_iterator<google_breakpad::ExceptionHandler**, std::vector<google_breakpad::ExceptionHandler*, std::allocator<google_breakpad::ExceptionHandler*> > >::operator+(long) const
PUBLIC 4fd2c 0 std::vector<google_breakpad::ExceptionHandler*, std::allocator<google_breakpad::ExceptionHandler*> >::_M_erase(__gnu_cxx::__normal_iterator<google_breakpad::ExceptionHandler**, std::vector<google_breakpad::ExceptionHandler*, std::allocator<google_breakpad::ExceptionHandler*> > >)
PUBLIC 4fde4 0 std::vector<google_breakpad::ExceptionHandler*, std::allocator<google_breakpad::ExceptionHandler*> >::begin() const
PUBLIC 4fe14 0 std::vector<google_breakpad::ExceptionHandler*, std::allocator<google_breakpad::ExceptionHandler*> >::end() const
PUBLIC 4fe45 0 bool __gnu_cxx::operator==<google_breakpad::ExceptionHandler* const*, std::vector<google_breakpad::ExceptionHandler*, std::allocator<google_breakpad::ExceptionHandler*> > >(__gnu_cxx::__normal_iterator<google_breakpad::ExceptionHandler* const*, std::vector<google_breakpad::ExceptionHandler*, std::allocator<google_breakpad::ExceptionHandler*> > > const&, __gnu_cxx::__normal_iterator<google_breakpad::ExceptionHandler* const*, std::vector<google_breakpad::ExceptionHandler*, std::allocator<google_breakpad::ExceptionHandler*> > > const&)
PUBLIC 4fe82 0 std::_Vector_base<google_breakpad::ExceptionHandler*, std::allocator<google_breakpad::ExceptionHandler*> >::_M_get_Tp_allocator()
PUBLIC 4fe90 0 void std::_Destroy<google_breakpad::ExceptionHandler**, google_breakpad::ExceptionHandler*>(google_breakpad::ExceptionHandler**, google_breakpad::ExceptionHandler**, std::allocator<google_breakpad::ExceptionHandler*>&)
PUBLIC 4feba 0 std::__cxx11::list<google_breakpad::MappingEntry, std::allocator<google_breakpad::MappingEntry> >::end()
PUBLIC 4fedf 0 google_breakpad::MappingEntry const& std::forward<google_breakpad::MappingEntry const&>(std::remove_reference<google_breakpad::MappingEntry const&>::type&)
PUBLIC 4feee 0 void std::__cxx11::list<google_breakpad::MappingEntry, std::allocator<google_breakpad::MappingEntry> >::_M_insert<google_breakpad::MappingEntry const&>(std::_List_iterator<google_breakpad::MappingEntry>, google_breakpad::MappingEntry const&)
PUBLIC 4ff4c 0 std::_List_iterator<google_breakpad::AppMemory>::_List_iterator(std::__detail::_List_node_base*)
PUBLIC 4ff66 0 __gnu_cxx::__ops::_Iter_equals_val<void* const> __gnu_cxx::__ops::__iter_equals_val<void* const>(void* const&)
PUBLIC 4ff8b 0 std::_List_iterator<google_breakpad::AppMemory> std::__find_if<std::_List_iterator<google_breakpad::AppMemory>, __gnu_cxx::__ops::_Iter_equals_val<void* const> >(std::_List_iterator<google_breakpad::AppMemory>, std::_List_iterator<google_breakpad::AppMemory>, __gnu_cxx::__ops::_Iter_equals_val<void* const>)
PUBLIC 4ffd2 0 google_breakpad::AppMemory const& std::forward<google_breakpad::AppMemory const&>(std::remove_reference<google_breakpad::AppMemory const&>::type&)
PUBLIC 4ffe0 0 void std::__cxx11::list<google_breakpad::AppMemory, std::allocator<google_breakpad::AppMemory> >::_M_insert<google_breakpad::AppMemory const&>(std::_List_iterator<google_breakpad::AppMemory>, google_breakpad::AppMemory const&)
PUBLIC 5003e 0 std::__cxx11::list<google_breakpad::AppMemory, std::allocator<google_breakpad::AppMemory> >::_M_erase(std::_List_iterator<google_breakpad::AppMemory>)
PUBLIC 500a8 0 std::_List_const_iterator<google_breakpad::AppMemory>::_M_const_cast() const
PUBLIC 500d0 0 std::__cxx11::_List_base<google_breakpad::MappingEntry, std::allocator<google_breakpad::MappingEntry> >::_List_impl::_List_impl()
PUBLIC 500f8 0 std::__cxx11::_List_base<google_breakpad::MappingEntry, std::allocator<google_breakpad::MappingEntry> >::_M_init()
PUBLIC 50130 0 __gnu_cxx::new_allocator<std::_List_node<google_breakpad::MappingEntry> >::~new_allocator()
PUBLIC 5013c 0 std::__cxx11::_List_base<google_breakpad::MappingEntry, std::allocator<google_breakpad::MappingEntry> >::_M_get_Node_allocator()
PUBLIC 5014a 0 void __gnu_cxx::new_allocator<std::_List_node<google_breakpad::MappingEntry> >::destroy<std::_List_node<google_breakpad::MappingEntry> >(std::_List_node<google_breakpad::MappingEntry>*)
PUBLIC 5015a 0 std::__cxx11::_List_base<google_breakpad::MappingEntry, std::allocator<google_breakpad::MappingEntry> >::_M_put_node(std::_List_node<google_breakpad::MappingEntry>*)
PUBLIC 50186 0 std::__cxx11::_List_base<google_breakpad::AppMemory, std::allocator<google_breakpad::AppMemory> >::_List_impl::_List_impl()
PUBLIC 501ae 0 std::__cxx11::_List_base<google_breakpad::AppMemory, std::allocator<google_breakpad::AppMemory> >::_M_init()
PUBLIC 501e6 0 __gnu_cxx::new_allocator<std::_List_node<google_breakpad::AppMemory> >::~new_allocator()
PUBLIC 501f2 0 std::__cxx11::_List_base<google_breakpad::AppMemory, std::allocator<google_breakpad::AppMemory> >::_M_get_Node_allocator()
PUBLIC 50200 0 void __gnu_cxx::new_allocator<std::_List_node<google_breakpad::AppMemory> >::destroy<std::_List_node<google_breakpad::AppMemory> >(std::_List_node<google_breakpad::AppMemory>*)
PUBLIC 50210 0 std::__cxx11::_List_base<google_breakpad::AppMemory, std::allocator<google_breakpad::AppMemory> >::_M_put_node(std::_List_node<google_breakpad::AppMemory>*)
PUBLIC 5023c 0 std::_Vector_base<google_breakpad::ExceptionHandler*, std::allocator<google_breakpad::ExceptionHandler*> >::_Vector_impl::_Vector_impl()
PUBLIC 5027a 0 std::allocator<google_breakpad::ExceptionHandler*>::~allocator()
PUBLIC 50296 0 std::_Vector_base<google_breakpad::ExceptionHandler*, std::allocator<google_breakpad::ExceptionHandler*> >::_M_deallocate(google_breakpad::ExceptionHandler**, unsigned long)
PUBLIC 502cb 0 _ZNSt16allocator_traitsISaIPN15google_breakpad16ExceptionHandlerEEE9constructIS2_IS2_EEEvRS3_PT_DpOT0_
PUBLIC 50304 0 void std::vector<google_breakpad::ExceptionHandler*, std::allocator<google_breakpad::ExceptionHandler*> >::_M_emplace_back_aux<google_breakpad::ExceptionHandler*>(google_breakpad::ExceptionHandler*&&)
PUBLIC 504f0 0 __gnu_cxx::__ops::_Iter_equals_val<google_breakpad::ExceptionHandler* const>::_Iter_equals_val(google_breakpad::ExceptionHandler* const&)
PUBLIC 5050a 0 std::iterator_traits<__gnu_cxx::__normal_iterator<google_breakpad::ExceptionHandler**, std::vector<google_breakpad::ExceptionHandler*, std::allocator<google_breakpad::ExceptionHandler*> > > >::iterator_category std::__iterator_category<__gnu_cxx::__normal_iterator<google_breakpad::ExceptionHandler**, std::vector<google_breakpad::ExceptionHandler*, std::allocator<google_breakpad::ExceptionHandler*> > > >(__gnu_cxx::__normal_iterator<google_breakpad::ExceptionHandler**, std::vector<google_breakpad::ExceptionHandler*, std::allocator<google_breakpad::ExceptionHandler*> > > const&)
PUBLIC 50514 0 __gnu_cxx::__normal_iterator<google_breakpad::ExceptionHandler**, std::vector<google_breakpad::ExceptionHandler*, std::allocator<google_breakpad::ExceptionHandler*> > > std::__find_if<__gnu_cxx::__normal_iterator<google_breakpad::ExceptionHandler**, std::vector<google_breakpad::ExceptionHandler*, std::allocator<google_breakpad::ExceptionHandler*> > >, __gnu_cxx::__ops::_Iter_equals_val<google_breakpad::ExceptionHandler* const> >(__gnu_cxx::__normal_iterator<google_breakpad::ExceptionHandler**, std::vector<google_breakpad::ExceptionHandler*, std::allocator<google_breakpad::ExceptionHandler*> > >, __gnu_cxx::__normal_iterator<google_breakpad::ExceptionHandler**, std::vector<google_breakpad::ExceptionHandler*, std::allocator<google_breakpad::ExceptionHandler*> > >, __gnu_cxx::__ops::_Iter_equals_val<google_breakpad::ExceptionHandler* const>, std::random_access_iterator_tag)
PUBLIC 506b0 0 __gnu_cxx::__normal_iterator<google_breakpad::ExceptionHandler* const*, std::vector<google_breakpad::ExceptionHandler*, std::allocator<google_breakpad::ExceptionHandler*> > >::__normal_iterator(google_breakpad::ExceptionHandler* const* const&)
PUBLIC 506ce 0 __gnu_cxx::__normal_iterator<google_breakpad::ExceptionHandler* const*, std::vector<google_breakpad::ExceptionHandler*, std::allocator<google_breakpad::ExceptionHandler*> > >::base() const
PUBLIC 506dc 0 bool __gnu_cxx::operator!=<google_breakpad::ExceptionHandler**, std::vector<google_breakpad::ExceptionHandler*, std::allocator<google_breakpad::ExceptionHandler*> > >(__gnu_cxx::__normal_iterator<google_breakpad::ExceptionHandler**, std::vector<google_breakpad::ExceptionHandler*, std::allocator<google_breakpad::ExceptionHandler*> > > const&, __gnu_cxx::__normal_iterator<google_breakpad::ExceptionHandler**, std::vector<google_breakpad::ExceptionHandler*, std::allocator<google_breakpad::ExceptionHandler*> > > const&)
PUBLIC 50718 0 __gnu_cxx::__normal_iterator<google_breakpad::ExceptionHandler**, std::vector<google_breakpad::ExceptionHandler*, std::allocator<google_breakpad::ExceptionHandler*> > > std::move<__gnu_cxx::__normal_iterator<google_breakpad::ExceptionHandler**, std::vector<google_breakpad::ExceptionHandler*, std::allocator<google_breakpad::ExceptionHandler*> > >, __gnu_cxx::__normal_iterator<google_breakpad::ExceptionHandler**, std::vector<google_breakpad::ExceptionHandler*, std::allocator<google_breakpad::ExceptionHandler*> > > >(__gnu_cxx::__normal_iterator<google_breakpad::ExceptionHandler**, std::vector<google_breakpad::ExceptionHandler*, std::allocator<google_breakpad::ExceptionHandler*> > >, __gnu_cxx::__normal_iterator<google_breakpad::ExceptionHandler**, std::vector<google_breakpad::ExceptionHandler*, std::allocator<google_breakpad::ExceptionHandler*> > >, __gnu_cxx::__normal_iterator<google_breakpad::ExceptionHandler**, std::vector<google_breakpad::ExceptionHandler*, std::allocator<google_breakpad::ExceptionHandler*> > >)
PUBLIC 50764 0 void std::allocator_traits<std::allocator<google_breakpad::ExceptionHandler*> >::destroy<google_breakpad::ExceptionHandler*>(std::allocator<google_breakpad::ExceptionHandler*>&, google_breakpad::ExceptionHandler**)
PUBLIC 5078a 0 void std::_Destroy<google_breakpad::ExceptionHandler**>(google_breakpad::ExceptionHandler**, google_breakpad::ExceptionHandler**)
PUBLIC 507b0 0 std::_List_iterator<google_breakpad::MappingEntry>::_List_iterator(std::__detail::_List_node_base*)
PUBLIC 507ca 0 std::_List_node<google_breakpad::MappingEntry>* std::__cxx11::list<google_breakpad::MappingEntry, std::allocator<google_breakpad::MappingEntry> >::_M_create_node<google_breakpad::MappingEntry const&>(google_breakpad::MappingEntry const&)
PUBLIC 5085c 0 std::__cxx11::_List_base<google_breakpad::MappingEntry, std::allocator<google_breakpad::MappingEntry> >::_M_inc_size(unsigned long)
PUBLIC 50882 0 __gnu_cxx::__ops::_Iter_equals_val<void* const>::_Iter_equals_val(void* const&)
PUBLIC 5089c 0 std::iterator_traits<std::_List_iterator<google_breakpad::AppMemory> >::iterator_category std::__iterator_category<std::_List_iterator<google_breakpad::AppMemory> >(std::_List_iterator<google_breakpad::AppMemory> const&)
PUBLIC 508a6 0 std::_List_iterator<google_breakpad::AppMemory> std::__find_if<std::_List_iterator<google_breakpad::AppMemory>, __gnu_cxx::__ops::_Iter_equals_val<void* const> >(std::_List_iterator<google_breakpad::AppMemory>, std::_List_iterator<google_breakpad::AppMemory>, __gnu_cxx::__ops::_Iter_equals_val<void* const>, std::input_iterator_tag)
PUBLIC 50910 0 std::_List_node<google_breakpad::AppMemory>* std::__cxx11::list<google_breakpad::AppMemory, std::allocator<google_breakpad::AppMemory> >::_M_create_node<google_breakpad::AppMemory const&>(google_breakpad::AppMemory const&)
PUBLIC 509a2 0 std::__cxx11::_List_base<google_breakpad::AppMemory, std::allocator<google_breakpad::AppMemory> >::_M_inc_size(unsigned long)
PUBLIC 509c8 0 std::__cxx11::_List_base<google_breakpad::AppMemory, std::allocator<google_breakpad::AppMemory> >::_M_dec_size(unsigned long)
PUBLIC 509ee 0 std::allocator<std::_List_node<google_breakpad::MappingEntry> >::allocator()
PUBLIC 50a0a 0 std::_List_node<unsigned long>::_List_node<>()
PUBLIC 50a38 0 std::__cxx11::_List_base<google_breakpad::MappingEntry, std::allocator<google_breakpad::MappingEntry> >::_M_set_size(unsigned long)
PUBLIC 50a54 0 __gnu_cxx::new_allocator<std::_List_node<google_breakpad::MappingEntry> >::deallocate(std::_List_node<google_breakpad::MappingEntry>*, unsigned long)
PUBLIC 50a78 0 std::allocator<std::_List_node<google_breakpad::AppMemory> >::allocator()
PUBLIC 50a94 0 std::__cxx11::_List_base<google_breakpad::AppMemory, std::allocator<google_breakpad::AppMemory> >::_M_set_size(unsigned long)
PUBLIC 50ab0 0 __gnu_cxx::new_allocator<std::_List_node<google_breakpad::AppMemory> >::deallocate(std::_List_node<google_breakpad::AppMemory>*, unsigned long)
PUBLIC 50ad4 0 std::allocator<google_breakpad::ExceptionHandler*>::allocator()
PUBLIC 50af0 0 __gnu_cxx::new_allocator<google_breakpad::ExceptionHandler*>::~new_allocator()
PUBLIC 50afb 0 std::allocator_traits<std::allocator<google_breakpad::ExceptionHandler*> >::deallocate(std::allocator<google_breakpad::ExceptionHandler*>&, google_breakpad::ExceptionHandler**, unsigned long)
PUBLIC 50b2a 0 void __gnu_cxx::new_allocator<google_breakpad::ExceptionHandler*>::construct<google_breakpad::ExceptionHandler*, google_breakpad::ExceptionHandler*>(google_breakpad::ExceptionHandler**, google_breakpad::ExceptionHandler*&&)
PUBLIC 50b70 0 std::vector<google_breakpad::ExceptionHandler*, std::allocator<google_breakpad::ExceptionHandler*> >::_M_check_len(unsigned long, char const*) const
PUBLIC 50c3a 0 std::_Vector_base<google_breakpad::ExceptionHandler*, std::allocator<google_breakpad::ExceptionHandler*> >::_M_allocate(unsigned long)
PUBLIC 50c6d 0 google_breakpad::ExceptionHandler** std::__uninitialized_move_if_noexcept_a<google_breakpad::ExceptionHandler**, google_breakpad::ExceptionHandler**, std::allocator<google_breakpad::ExceptionHandler*> >(google_breakpad::ExceptionHandler**, google_breakpad::ExceptionHandler**, google_breakpad::ExceptionHandler**, std::allocator<google_breakpad::ExceptionHandler*>&)
PUBLIC 50cc1 0 __gnu_cxx::__normal_iterator<google_breakpad::ExceptionHandler**, std::vector<google_breakpad::ExceptionHandler*, std::allocator<google_breakpad::ExceptionHandler*> > >::difference_type __gnu_cxx::operator-<google_breakpad::ExceptionHandler**, std::vector<google_breakpad::ExceptionHandler*, std::allocator<google_breakpad::ExceptionHandler*> > >(__gnu_cxx::__normal_iterator<google_breakpad::ExceptionHandler**, std::vector<google_breakpad::ExceptionHandler*, std::allocator<google_breakpad::ExceptionHandler*> > > const&, __gnu_cxx::__normal_iterator<google_breakpad::ExceptionHandler**, std::vector<google_breakpad::ExceptionHandler*, std::allocator<google_breakpad::ExceptionHandler*> > > const&)
PUBLIC 50d04 0 bool __gnu_cxx::__ops::_Iter_equals_val<google_breakpad::ExceptionHandler* const>::operator()<__gnu_cxx::__normal_iterator<google_breakpad::ExceptionHandler**, std::vector<google_breakpad::ExceptionHandler*, std::allocator<google_breakpad::ExceptionHandler*> > > >(__gnu_cxx::__normal_iterator<google_breakpad::ExceptionHandler**, std::vector<google_breakpad::ExceptionHandler*, std::allocator<google_breakpad::ExceptionHandler*> > >)
PUBLIC 50d36 0 __gnu_cxx::__normal_iterator<google_breakpad::ExceptionHandler**, std::vector<google_breakpad::ExceptionHandler*, std::allocator<google_breakpad::ExceptionHandler*> > >::operator++()
PUBLIC 50d56 0 std::_Miter_base<__gnu_cxx::__normal_iterator<google_breakpad::ExceptionHandler**, std::vector<google_breakpad::ExceptionHandler*, std::allocator<google_breakpad::ExceptionHandler*> > > >::iterator_type std::__miter_base<__gnu_cxx::__normal_iterator<google_breakpad::ExceptionHandler**, std::vector<google_breakpad::ExceptionHandler*, std::allocator<google_breakpad::ExceptionHandler*> > > >(__gnu_cxx::__normal_iterator<google_breakpad::ExceptionHandler**, std::vector<google_breakpad::ExceptionHandler*, std::allocator<google_breakpad::ExceptionHandler*> > >)
PUBLIC 50d70 0 __gnu_cxx::__normal_iterator<google_breakpad::ExceptionHandler**, std::vector<google_breakpad::ExceptionHandler*, std::allocator<google_breakpad::ExceptionHandler*> > > std::__copy_move_a2<true, __gnu_cxx::__normal_iterator<google_breakpad::ExceptionHandler**, std::vector<google_breakpad::ExceptionHandler*, std::allocator<google_breakpad::ExceptionHandler*> > >, __gnu_cxx::__normal_iterator<google_breakpad::ExceptionHandler**, std::vector<google_breakpad::ExceptionHandler*, std::allocator<google_breakpad::ExceptionHandler*> > > >(__gnu_cxx::__normal_iterator<google_breakpad::ExceptionHandler**, std::vector<google_breakpad::ExceptionHandler*, std::allocator<google_breakpad::ExceptionHandler*> > >, __gnu_cxx::__normal_iterator<google_breakpad::ExceptionHandler**, std::vector<google_breakpad::ExceptionHandler*, std::allocator<google_breakpad::ExceptionHandler*> > >, __gnu_cxx::__normal_iterator<google_breakpad::ExceptionHandler**, std::vector<google_breakpad::ExceptionHandler*, std::allocator<google_breakpad::ExceptionHandler*> > >)
PUBLIC 50de4 0 void __gnu_cxx::new_allocator<google_breakpad::ExceptionHandler*>::destroy<google_breakpad::ExceptionHandler*>(google_breakpad::ExceptionHandler**)
PUBLIC 50df3 0 void std::_Destroy_aux<true>::__destroy<google_breakpad::ExceptionHandler**>(google_breakpad::ExceptionHandler**, google_breakpad::ExceptionHandler**)
PUBLIC 50e02 0 std::__cxx11::_List_base<google_breakpad::MappingEntry, std::allocator<google_breakpad::MappingEntry> >::_M_get_node()
PUBLIC 50e26 0 _ZN9__gnu_cxx13new_allocatorISt10_List_nodeIN15google_breakpad12MappingEntryEEE9constructIS4_IRKS3_EEEvPT_DpOT0_
PUBLIC 50e74 0 bool __gnu_cxx::__ops::_Iter_equals_val<void* const>::operator()<std::_List_iterator<google_breakpad::AppMemory> >(std::_List_iterator<google_breakpad::AppMemory>)
PUBLIC 50eae 0 std::_List_iterator<google_breakpad::AppMemory>::operator++()
PUBLIC 50ece 0 std::__cxx11::_List_base<google_breakpad::AppMemory, std::allocator<google_breakpad::AppMemory> >::_M_get_node()
PUBLIC 50ef2 0 void __gnu_cxx::new_allocator<std::_List_node<google_breakpad::AppMemory> >::construct<std::_List_node<google_breakpad::AppMemory>, google_breakpad::AppMemory const&>(std::_List_node<google_breakpad::AppMemory>*, google_breakpad::AppMemory const&)
PUBLIC 50f40 0 __gnu_cxx::new_allocator<std::_List_node<google_breakpad::MappingEntry> >::new_allocator()
PUBLIC 50f4c 0 __gnu_cxx::new_allocator<std::_List_node<google_breakpad::AppMemory> >::new_allocator()
PUBLIC 50f58 0 __gnu_cxx::new_allocator<google_breakpad::ExceptionHandler*>::new_allocator()
PUBLIC 50f64 0 __gnu_cxx::new_allocator<google_breakpad::ExceptionHandler*>::deallocate(google_breakpad::ExceptionHandler**, unsigned long)
PUBLIC 50f88 0 std::vector<google_breakpad::ExceptionHandler*, std::allocator<google_breakpad::ExceptionHandler*> >::max_size() const
PUBLIC 50faa 0 std::allocator_traits<std::allocator<google_breakpad::ExceptionHandler*> >::allocate(std::allocator<google_breakpad::ExceptionHandler*>&, unsigned long)
PUBLIC 50fd4 0 std::move_iterator<google_breakpad::ExceptionHandler**> std::__make_move_if_noexcept_iterator<google_breakpad::ExceptionHandler**, std::move_iterator<google_breakpad::ExceptionHandler**> >(google_breakpad::ExceptionHandler**)
PUBLIC 50ff9 0 google_breakpad::ExceptionHandler** std::__uninitialized_copy_a<std::move_iterator<google_breakpad::ExceptionHandler**>, google_breakpad::ExceptionHandler**, google_breakpad::ExceptionHandler*>(std::move_iterator<google_breakpad::ExceptionHandler**>, std::move_iterator<google_breakpad::ExceptionHandler**>, google_breakpad::ExceptionHandler**, std::allocator<google_breakpad::ExceptionHandler*>&)
PUBLIC 5102a 0 __gnu_cxx::__normal_iterator<google_breakpad::ExceptionHandler**, std::vector<google_breakpad::ExceptionHandler*, std::allocator<google_breakpad::ExceptionHandler*> > >::operator*() const
PUBLIC 5103b 0 std::_Iter_base<__gnu_cxx::__normal_iterator<google_breakpad::ExceptionHandler**, std::vector<google_breakpad::ExceptionHandler*, std::allocator<google_breakpad::ExceptionHandler*> > >, false>::_S_base(__gnu_cxx::__normal_iterator<google_breakpad::ExceptionHandler**, std::vector<google_breakpad::ExceptionHandler*, std::allocator<google_breakpad::ExceptionHandler*> > >)
PUBLIC 51049 0 std::_Niter_base<__gnu_cxx::__normal_iterator<google_breakpad::ExceptionHandler**, std::vector<google_breakpad::ExceptionHandler*, std::allocator<google_breakpad::ExceptionHandler*> > > >::iterator_type std::__niter_base<__gnu_cxx::__normal_iterator<google_breakpad::ExceptionHandler**, std::vector<google_breakpad::ExceptionHandler*, std::allocator<google_breakpad::ExceptionHandler*> > > >(__gnu_cxx::__normal_iterator<google_breakpad::ExceptionHandler**, std::vector<google_breakpad::ExceptionHandler*, std::allocator<google_breakpad::ExceptionHandler*> > >)
PUBLIC 51063 0 google_breakpad::ExceptionHandler** std::__copy_move_a<true, google_breakpad::ExceptionHandler**, google_breakpad::ExceptionHandler**>(google_breakpad::ExceptionHandler**, google_breakpad::ExceptionHandler**, google_breakpad::ExceptionHandler**)
PUBLIC 51094 0 __gnu_cxx::new_allocator<std::_List_node<google_breakpad::MappingEntry> >::allocate(unsigned long, void const*)
PUBLIC 510da 0 std::_List_node<google_breakpad::MappingEntry>::_List_node<google_breakpad::MappingEntry const&>(google_breakpad::MappingEntry const&)
PUBLIC 5112c 0 std::_List_iterator<google_breakpad::AppMemory>::operator*() const
PUBLIC 51142 0 __gnu_cxx::new_allocator<std::_List_node<google_breakpad::AppMemory> >::allocate(unsigned long, void const*)
PUBLIC 51184 0 std::_List_node<google_breakpad::AppMemory>::_List_node<google_breakpad::AppMemory const&>(google_breakpad::AppMemory const&)
PUBLIC 511cd 0 std::allocator_traits<std::allocator<google_breakpad::ExceptionHandler*> >::max_size(std::allocator<google_breakpad::ExceptionHandler*> const&)
PUBLIC 511e8 0 std::_Vector_base<google_breakpad::ExceptionHandler*, std::allocator<google_breakpad::ExceptionHandler*> >::_M_get_Tp_allocator() const
PUBLIC 511f6 0 __gnu_cxx::new_allocator<google_breakpad::ExceptionHandler*>::allocate(unsigned long, void const*)
PUBLIC 51238 0 std::move_iterator<google_breakpad::ExceptionHandler**>::move_iterator(google_breakpad::ExceptionHandler**)
PUBLIC 51252 0 google_breakpad::ExceptionHandler** std::uninitialized_copy<std::move_iterator<google_breakpad::ExceptionHandler**>, google_breakpad::ExceptionHandler**>(std::move_iterator<google_breakpad::ExceptionHandler**>, std::move_iterator<google_breakpad::ExceptionHandler**>, google_breakpad::ExceptionHandler**)
PUBLIC 51283 0 std::_Iter_base<__gnu_cxx::__normal_iterator<google_breakpad::ExceptionHandler**, std::vector<google_breakpad::ExceptionHandler*, std::allocator<google_breakpad::ExceptionHandler*> > >, true>::_S_base(__gnu_cxx::__normal_iterator<google_breakpad::ExceptionHandler**, std::vector<google_breakpad::ExceptionHandler*, std::allocator<google_breakpad::ExceptionHandler*> > >)
PUBLIC 512a0 0 google_breakpad::ExceptionHandler** std::__copy_move<true, true, std::random_access_iterator_tag>::__copy_m<google_breakpad::ExceptionHandler*>(google_breakpad::ExceptionHandler* const*, google_breakpad::ExceptionHandler* const*, google_breakpad::ExceptionHandler**)
PUBLIC 51306 0 __gnu_cxx::new_allocator<std::_List_node<google_breakpad::MappingEntry> >::max_size() const
PUBLIC 5131a 0 __gnu_cxx::new_allocator<std::_List_node<google_breakpad::AppMemory> >::max_size() const
PUBLIC 5132e 0 __gnu_cxx::new_allocator<google_breakpad::ExceptionHandler*>::max_size() const
PUBLIC 51342 0 google_breakpad::ExceptionHandler** std::__uninitialized_copy<true>::__uninit_copy<std::move_iterator<google_breakpad::ExceptionHandler**>, google_breakpad::ExceptionHandler**>(std::move_iterator<google_breakpad::ExceptionHandler**>, std::move_iterator<google_breakpad::ExceptionHandler**>, google_breakpad::ExceptionHandler**)
PUBLIC 5136f 0 google_breakpad::ExceptionHandler** std::copy<std::move_iterator<google_breakpad::ExceptionHandler**>, google_breakpad::ExceptionHandler**>(std::move_iterator<google_breakpad::ExceptionHandler**>, std::move_iterator<google_breakpad::ExceptionHandler**>, google_breakpad::ExceptionHandler**)
PUBLIC 513bb 0 std::_Miter_base<std::move_iterator<google_breakpad::ExceptionHandler**> >::iterator_type std::__miter_base<std::move_iterator<google_breakpad::ExceptionHandler**> >(std::move_iterator<google_breakpad::ExceptionHandler**>)
PUBLIC 513d5 0 google_breakpad::ExceptionHandler** std::__copy_move_a2<true, google_breakpad::ExceptionHandler**, google_breakpad::ExceptionHandler**>(google_breakpad::ExceptionHandler**, google_breakpad::ExceptionHandler**, google_breakpad::ExceptionHandler**)
PUBLIC 5142d 0 std::_Iter_base<std::move_iterator<google_breakpad::ExceptionHandler**>, true>::_S_base(std::move_iterator<google_breakpad::ExceptionHandler**>)
PUBLIC 51447 0 std::_Niter_base<google_breakpad::ExceptionHandler**>::iterator_type std::__niter_base<google_breakpad::ExceptionHandler**>(google_breakpad::ExceptionHandler**)
PUBLIC 51462 0 std::move_iterator<google_breakpad::ExceptionHandler**>::base() const
PUBLIC 51473 0 std::_Iter_base<google_breakpad::ExceptionHandler**, false>::_S_base(google_breakpad::ExceptionHandler**)
PUBLIC 51482 0 google_breakpad::MinidumpDescriptor::MinidumpDescriptor(google_breakpad::MinidumpDescriptor const&)
PUBLIC 5154a 0 google_breakpad::MinidumpDescriptor::operator=(google_breakpad::MinidumpDescriptor const&)
PUBLIC 5162e 0 google_breakpad::MinidumpDescriptor::UpdatePath()
PUBLIC 517f8 0 sys_write
PUBLIC 5184e 0 logger::write(char const*, unsigned long)
PUBLIC 51876 0 sys_mmap
PUBLIC 518fe 0 (anonymous namespace)::MicrodumpWriter::MicrodumpWriter(google_breakpad::ExceptionHandler::CrashContext const*, std::__cxx11::list<google_breakpad::MappingEntry, std::allocator<google_breakpad::MappingEntry> > const&, google_breakpad::MicrodumpExtraInfo const&, google_breakpad::LinuxDumper*)
PUBLIC 519d8 0 (anonymous namespace)::MicrodumpWriter::~MicrodumpWriter()
PUBLIC 51a06 0 (anonymous namespace)::MicrodumpWriter::Init()
PUBLIC 51ab2 0 (anonymous namespace)::MicrodumpWriter::Dump()
PUBLIC 51b52 0 (anonymous namespace)::MicrodumpWriter::LogLine(char const*)
PUBLIC 51b94 0 (anonymous namespace)::MicrodumpWriter::LogAppend(char const*)
PUBLIC 51bc4 0 (anonymous namespace)::MicrodumpWriter::LogAppend(char*)
PUBLIC 51bea 0 (anonymous namespace)::MicrodumpWriter::LogAppend(void const*, unsigned long)
PUBLIC 51c40 0 (anonymous namespace)::MicrodumpWriter::LogCommitLine()
PUBLIC 51c82 0 (anonymous namespace)::MicrodumpWriter::DumpProductInformation()
PUBLIC 51cea 0 (anonymous namespace)::MicrodumpWriter::DumpOSInformation()
PUBLIC 51ed2 0 (anonymous namespace)::MicrodumpWriter::DumpGPUInformation()
PUBLIC 51f3a 0 (anonymous namespace)::MicrodumpWriter::DumpThreadStack(unsigned int, unsigned long, int, unsigned char**)
PUBLIC 52136 0 (anonymous namespace)::MicrodumpWriter::DumpCrashingThread()
PUBLIC 52318 0 (anonymous namespace)::MicrodumpWriter::DumpCPUState(MDRawContextAMD64*)
PUBLIC 52362 0 (anonymous namespace)::MicrodumpWriter::HaveMappingInfo(google_breakpad::MappingInfo const&)
PUBLIC 52440 0 (anonymous namespace)::MicrodumpWriter::DumpModule(google_breakpad::MappingInfo const&, bool, unsigned int, unsigned char const*)
PUBLIC 52814 0 (anonymous namespace)::MicrodumpWriter::DumpMappings()
PUBLIC 52988 0 (anonymous namespace)::MicrodumpWriter::Alloc(unsigned int)
PUBLIC 529bd 0 google_breakpad::WriteMicrodump(int, void const*, unsigned long, std::__cxx11::list<google_breakpad::MappingEntry, std::allocator<google_breakpad::MappingEntry> > const&, google_breakpad::MicrodumpExtraInfo const&)
PUBLIC 52b3c 0 void (anonymous namespace)::MicrodumpWriter::LogAppend<unsigned char>(unsigned char)
PUBLIC 52bae 0 void (anonymous namespace)::MicrodumpWriter::LogAppend<unsigned long>(unsigned long)
PUBLIC 52c1e 0 void (anonymous namespace)::MicrodumpWriter::LogAppend<unsigned int>(unsigned int)
PUBLIC 52c88 0 void (anonymous namespace)::MicrodumpWriter::LogAppend<unsigned short>(unsigned short)
PUBLIC 52d00 0 google_breakpad::LinuxDumper::threads()
PUBLIC 52d12 0 google_breakpad::LinuxDumper::mappings()
PUBLIC 52d24 0 google_breakpad::LinuxDumper::allocator()
PUBLIC 52d36 0 google_breakpad::LinuxDumper::set_crash_address(unsigned long)
PUBLIC 52d52 0 google_breakpad::LinuxDumper::set_crash_signal(int)
PUBLIC 52d6a 0 google_breakpad::LinuxDumper::crash_thread() const
PUBLIC 52d7c 0 google_breakpad::LinuxDumper::set_crash_thread(int)
PUBLIC 52d94 0 google_breakpad::wasteful_vector<unsigned char>::~wasteful_vector()
PUBLIC 52db0 0 google_breakpad::auto_wasteful_vector<unsigned char, 20u>::~auto_wasteful_vector()
PUBLIC 52dcb 0 unsigned long const& std::min<unsigned long>(unsigned long const&, unsigned long const&)
PUBLIC 52df6 0 std::vector<int, google_breakpad::PageStdAllocator<int> >::size() const
PUBLIC 52e1e 0 std::vector<int, google_breakpad::PageStdAllocator<int> >::operator[](unsigned long) const
PUBLIC 52e40 0 std::__cxx11::list<google_breakpad::MappingEntry, std::allocator<google_breakpad::MappingEntry> >::begin() const
PUBLIC 52e68 0 std::__cxx11::list<google_breakpad::MappingEntry, std::allocator<google_breakpad::MappingEntry> >::end() const
PUBLIC 52e8e 0 std::_List_const_iterator<google_breakpad::MappingEntry>::operator!=(std::_List_const_iterator<google_breakpad::MappingEntry> const&) const
PUBLIC 52eb0 0 std::_List_const_iterator<google_breakpad::MappingEntry>::operator++()
PUBLIC 52ed0 0 std::_List_const_iterator<google_breakpad::MappingEntry>::operator->() const
PUBLIC 52ef2 0 google_breakpad::PageStdAllocator<unsigned char>::~PageStdAllocator()
PUBLIC 52f0e 0 google_breakpad::auto_wasteful_vector<unsigned char, 20u>::auto_wasteful_vector(google_breakpad::PageAllocator*)
PUBLIC 52f90 0 std::vector<unsigned char, google_breakpad::PageStdAllocator<unsigned char> >::~vector()
PUBLIC 52fd6 0 std::vector<unsigned char, google_breakpad::PageStdAllocator<unsigned char> >::end()
PUBLIC 53000 0 __gnu_cxx::__normal_iterator<unsigned char const*, std::vector<unsigned char, google_breakpad::PageStdAllocator<unsigned char> > >::__normal_iterator<unsigned char*>(__gnu_cxx::__normal_iterator<unsigned char*, __gnu_cxx::__enable_if<std::__are_same<unsigned char*, unsigned char*>::__value, std::vector<unsigned char, google_breakpad::PageStdAllocator<unsigned char> > >::__type> const&)
PUBLIC 5302a 0 __gnu_cxx::__normal_iterator<unsigned char*, std::vector<unsigned char, google_breakpad::PageStdAllocator<unsigned char> > > std::vector<unsigned char, google_breakpad::PageStdAllocator<unsigned char> >::insert<unsigned char const*, void>(__gnu_cxx::__normal_iterator<unsigned char const*, std::vector<unsigned char, google_breakpad::PageStdAllocator<unsigned char> > >, unsigned char const*, unsigned char const*)
PUBLIC 530d6 0 std::vector<unsigned char, google_breakpad::PageStdAllocator<unsigned char> >::operator[](unsigned long)
PUBLIC 530f4 0 std::vector<unsigned char, google_breakpad::PageStdAllocator<unsigned char> >::size() const
PUBLIC 53118 0 std::vector<google_breakpad::MappingInfo*, google_breakpad::PageStdAllocator<google_breakpad::MappingInfo*> >::size() const
PUBLIC 53140 0 std::vector<google_breakpad::MappingInfo*, google_breakpad::PageStdAllocator<google_breakpad::MappingInfo*> >::operator[](unsigned long) const
PUBLIC 53162 0 std::_List_const_iterator<google_breakpad::MappingEntry>::_List_const_iterator(std::__detail::_List_node_base const*)
PUBLIC 5317c 0 google_breakpad::MappingEntry const* std::__addressof<google_breakpad::MappingEntry const>(google_breakpad::MappingEntry const&)
PUBLIC 5318a 0 google_breakpad::PageStdAllocator<unsigned char>::PageStdAllocator(google_breakpad::PageAllocator&, unsigned char*, unsigned long)
PUBLIC 531d4 0 std::allocator<unsigned char>::~allocator()
PUBLIC 531f0 0 std::allocator<unsigned char>::allocator(std::allocator<unsigned char> const&)
PUBLIC 53216 0 google_breakpad::wasteful_vector<unsigned char>::wasteful_vector(google_breakpad::PageStdAllocator<unsigned char>)
PUBLIC 5323c 0 std::vector<unsigned char, google_breakpad::PageStdAllocator<unsigned char> >::reserve(unsigned long)
PUBLIC 53374 0 std::_Vector_base<unsigned char, google_breakpad::PageStdAllocator<unsigned char> >::_Vector_impl::~_Vector_impl()
PUBLIC 53390 0 std::_Vector_base<unsigned char, google_breakpad::PageStdAllocator<unsigned char> >::~_Vector_base()
PUBLIC 533de 0 std::_Vector_base<unsigned char, google_breakpad::PageStdAllocator<unsigned char> >::_M_get_Tp_allocator()
PUBLIC 533ec 0 void std::_Destroy<unsigned char*, google_breakpad::PageStdAllocator<unsigned char> >(unsigned char*, unsigned char*, google_breakpad::PageStdAllocator<unsigned char>&)
PUBLIC 53432 0 __gnu_cxx::__normal_iterator<unsigned char*, std::vector<unsigned char, google_breakpad::PageStdAllocator<unsigned char> > >::__normal_iterator(unsigned char* const&)
PUBLIC 53450 0 __gnu_cxx::__normal_iterator<unsigned char*, std::vector<unsigned char, google_breakpad::PageStdAllocator<unsigned char> > >::base() const
PUBLIC 5345e 0 std::vector<unsigned char, google_breakpad::PageStdAllocator<unsigned char> >::cbegin() const
PUBLIC 5348f 0 __gnu_cxx::__normal_iterator<unsigned char const*, std::vector<unsigned char, google_breakpad::PageStdAllocator<unsigned char> > >::difference_type __gnu_cxx::operator-<unsigned char const*, std::vector<unsigned char, google_breakpad::PageStdAllocator<unsigned char> > >(__gnu_cxx::__normal_iterator<unsigned char const*, std::vector<unsigned char, google_breakpad::PageStdAllocator<unsigned char> > > const&, __gnu_cxx::__normal_iterator<unsigned char const*, std::vector<unsigned char, google_breakpad::PageStdAllocator<unsigned char> > > const&)
PUBLIC 534ce 0 std::vector<unsigned char, google_breakpad::PageStdAllocator<unsigned char> >::begin()
PUBLIC 534f8 0 __gnu_cxx::__normal_iterator<unsigned char*, std::vector<unsigned char, google_breakpad::PageStdAllocator<unsigned char> > >::operator+(long) const
PUBLIC 53534 0 void std::vector<unsigned char, google_breakpad::PageStdAllocator<unsigned char> >::_M_insert_dispatch<unsigned char const*>(__gnu_cxx::__normal_iterator<unsigned char*, std::vector<unsigned char, google_breakpad::PageStdAllocator<unsigned char> > >, unsigned char const*, unsigned char const*, std::__false_type)
PUBLIC 53572 0 std::allocator<unsigned char>::allocator()
PUBLIC 5358e 0 __gnu_cxx::new_allocator<unsigned char>::~new_allocator()
PUBLIC 5359a 0 __gnu_cxx::new_allocator<unsigned char>::new_allocator(__gnu_cxx::new_allocator<unsigned char> const&)
PUBLIC 535aa 0 std::vector<unsigned char, google_breakpad::PageStdAllocator<unsigned char> >::vector(google_breakpad::PageStdAllocator<unsigned char> const&)
PUBLIC 535d0 0 std::vector<unsigned char, google_breakpad::PageStdAllocator<unsigned char> >::max_size() const
PUBLIC 535f2 0 std::vector<unsigned char, google_breakpad::PageStdAllocator<unsigned char> >::capacity() const
PUBLIC 53615 0 std::move_iterator<unsigned char*> std::__make_move_if_noexcept_iterator<unsigned char*, std::move_iterator<unsigned char*> >(unsigned char*)
PUBLIC 5363a 0 unsigned char* std::vector<unsigned char, google_breakpad::PageStdAllocator<unsigned char> >::_M_allocate_and_copy<std::move_iterator<unsigned char*> >(unsigned long, std::move_iterator<unsigned char*>, std::move_iterator<unsigned char*>)
PUBLIC 536d2 0 std::_Vector_base<unsigned char, google_breakpad::PageStdAllocator<unsigned char> >::_M_deallocate(unsigned char*, unsigned long)
PUBLIC 53707 0 unsigned char* std::__addressof<unsigned char>(unsigned char&)
PUBLIC 53715 0 void std::allocator_traits<google_breakpad::PageStdAllocator<unsigned char> >::destroy<unsigned char>(google_breakpad::PageStdAllocator<unsigned char>&, unsigned char*)
PUBLIC 5373c 0 __gnu_cxx::__normal_iterator<unsigned char const*, std::vector<unsigned char, google_breakpad::PageStdAllocator<unsigned char> > >::__normal_iterator(unsigned char const* const&)
PUBLIC 5375a 0 __gnu_cxx::__normal_iterator<unsigned char const*, std::vector<unsigned char, google_breakpad::PageStdAllocator<unsigned char> > >::base() const
PUBLIC 53768 0 void std::vector<unsigned char, google_breakpad::PageStdAllocator<unsigned char> >::_M_range_insert<unsigned char const*>(__gnu_cxx::__normal_iterator<unsigned char*, std::vector<unsigned char, google_breakpad::PageStdAllocator<unsigned char> > >, unsigned char const*, unsigned char const*, std::forward_iterator_tag)
PUBLIC 53b3a 0 __gnu_cxx::new_allocator<unsigned char>::new_allocator()
PUBLIC 53b46 0 std::_Vector_base<unsigned char, google_breakpad::PageStdAllocator<unsigned char> >::_Vector_base(google_breakpad::PageStdAllocator<unsigned char> const&)
PUBLIC 53b6c 0 std::allocator_traits<google_breakpad::PageStdAllocator<unsigned char> >::max_size(google_breakpad::PageStdAllocator<unsigned char> const&)
PUBLIC 53b8c 0 std::_Vector_base<unsigned char, google_breakpad::PageStdAllocator<unsigned char> >::_M_get_Tp_allocator() const
PUBLIC 53b9a 0 std::move_iterator<unsigned char*>::move_iterator(unsigned char*)
PUBLIC 53bb4 0 std::_Vector_base<unsigned char, google_breakpad::PageStdAllocator<unsigned char> >::_M_allocate(unsigned long)
PUBLIC 53be7 0 unsigned char* std::__uninitialized_copy_a<std::move_iterator<unsigned char*>, unsigned char*, google_breakpad::PageStdAllocator<unsigned char> >(std::move_iterator<unsigned char*>, std::move_iterator<unsigned char*>, unsigned char*, google_breakpad::PageStdAllocator<unsigned char>&)
PUBLIC 53ca6 0 std::allocator_traits<google_breakpad::PageStdAllocator<unsigned char> >::deallocate(google_breakpad::PageStdAllocator<unsigned char>&, unsigned char*, unsigned long)
PUBLIC 53cd4 0 std::enable_if<std::__and_<std::allocator_traits<google_breakpad::PageStdAllocator<unsigned char> >::__destroy_helper<unsigned char>::type>::value, void>::type std::allocator_traits<google_breakpad::PageStdAllocator<unsigned char> >::_S_destroy<unsigned char>(google_breakpad::PageStdAllocator<unsigned char>&, unsigned char*)
PUBLIC 53cfa 0 std::iterator_traits<unsigned char const*>::difference_type std::distance<unsigned char const*>(unsigned char const*, unsigned char const*)
PUBLIC 53d39 0 __gnu_cxx::__normal_iterator<unsigned char*, std::vector<unsigned char, google_breakpad::PageStdAllocator<unsigned char> > >::difference_type __gnu_cxx::operator-<unsigned char*, std::vector<unsigned char, google_breakpad::PageStdAllocator<unsigned char> > >(__gnu_cxx::__normal_iterator<unsigned char*, std::vector<unsigned char, google_breakpad::PageStdAllocator<unsigned char> > > const&, __gnu_cxx::__normal_iterator<unsigned char*, std::vector<unsigned char, google_breakpad::PageStdAllocator<unsigned char> > > const&)
PUBLIC 53d78 0 unsigned char* std::__uninitialized_move_a<unsigned char*, unsigned char*, google_breakpad::PageStdAllocator<unsigned char> >(unsigned char*, unsigned char*, unsigned char*, google_breakpad::PageStdAllocator<unsigned char>&)
PUBLIC 53dcc 0 unsigned char* std::move_backward<unsigned char*, unsigned char*>(unsigned char*, unsigned char*, unsigned char*)
PUBLIC 53e18 0 __gnu_cxx::__normal_iterator<unsigned char*, std::vector<unsigned char, google_breakpad::PageStdAllocator<unsigned char> > > std::copy<unsigned char const*, __gnu_cxx::__normal_iterator<unsigned char*, std::vector<unsigned char, google_breakpad::PageStdAllocator<unsigned char> > > >(unsigned char const*, unsigned char const*, __gnu_cxx::__normal_iterator<unsigned char*, std::vector<unsigned char, google_breakpad::PageStdAllocator<unsigned char> > >)
PUBLIC 53e64 0 void std::advance<unsigned char const*, unsigned long>(unsigned char const*&, unsigned long)
PUBLIC 53eac 0 unsigned char* std::__uninitialized_copy_a<unsigned char const*, unsigned char*, google_breakpad::PageStdAllocator<unsigned char> >(unsigned char const*, unsigned char const*, unsigned char*, google_breakpad::PageStdAllocator<unsigned char>&)
PUBLIC 53f4a 0 std::vector<unsigned char, google_breakpad::PageStdAllocator<unsigned char> >::_M_check_len(unsigned long, char const*) const
PUBLIC 54013 0 unsigned char* std::__uninitialized_move_if_noexcept_a<unsigned char*, unsigned char*, google_breakpad::PageStdAllocator<unsigned char> >(unsigned char*, unsigned char*, unsigned char*, google_breakpad::PageStdAllocator<unsigned char>&)
PUBLIC 54068 0 google_breakpad::PageStdAllocator<unsigned char>::PageStdAllocator(google_breakpad::PageStdAllocator<unsigned char> const&)
PUBLIC 540bc 0 std::_Vector_base<unsigned char, google_breakpad::PageStdAllocator<unsigned char> >::_Vector_impl::_Vector_impl(google_breakpad::PageStdAllocator<unsigned char> const&)
PUBLIC 54106 0 unsigned long std::allocator_traits<google_breakpad::PageStdAllocator<unsigned char> >::_S_max_size<google_breakpad::PageStdAllocator<unsigned char> const, void>(google_breakpad::PageStdAllocator<unsigned char> const&, int)
PUBLIC 54123 0 std::allocator_traits<google_breakpad::PageStdAllocator<unsigned char> >::allocate(google_breakpad::PageStdAllocator<unsigned char>&, unsigned long)
PUBLIC 5414d 0 bool std::operator!=<unsigned char*>(std::move_iterator<unsigned char*> const&, std::move_iterator<unsigned char*> const&)
PUBLIC 54176 0 std::move_iterator<unsigned char*>::operator++()
PUBLIC 54196 0 std::move_iterator<unsigned char*>::operator*() const
PUBLIC 541a7 0 unsigned char&& std::forward<unsigned char>(std::remove_reference<unsigned char>::type&)
PUBLIC 541b5 0 decltype (_S_construct({parm#1}, {parm#2}, (forward<unsigned char>)({parm#3}))) std::allocator_traits<google_breakpad::PageStdAllocator<unsigned char> >::construct<unsigned char, unsigned char>(google_breakpad::PageStdAllocator<unsigned char>&, unsigned char*, unsigned char&&)
PUBLIC 541ee 0 google_breakpad::PageStdAllocator<unsigned char>::deallocate(unsigned char*, unsigned long)
PUBLIC 54202 0 void __gnu_cxx::new_allocator<unsigned char>::destroy<unsigned char>(unsigned char*)
PUBLIC 54211 0 std::iterator_traits<unsigned char const*>::iterator_category std::__iterator_category<unsigned char const*>(unsigned char const* const&)
PUBLIC 5421b 0 std::iterator_traits<unsigned char const*>::difference_type std::__distance<unsigned char const*>(unsigned char const*, unsigned char const*, std::random_access_iterator_tag)
PUBLIC 54237 0 std::move_iterator<unsigned char*> std::make_move_iterator<unsigned char*>(unsigned char*)
PUBLIC 5425c 0 std::_Miter_base<unsigned char*>::iterator_type std::__miter_base<unsigned char*>(unsigned char*)
PUBLIC 54276 0 unsigned char* std::__copy_move_backward_a2<true, unsigned char*, unsigned char*>(unsigned char*, unsigned char*, unsigned char*)
PUBLIC 542ce 0 std::_Miter_base<unsigned char const*>::iterator_type std::__miter_base<unsigned char const*>(unsigned char const*)
PUBLIC 542e8 0 __gnu_cxx::__normal_iterator<unsigned char*, std::vector<unsigned char, google_breakpad::PageStdAllocator<unsigned char> > > std::__copy_move_a2<false, unsigned char const*, __gnu_cxx::__normal_iterator<unsigned char*, std::vector<unsigned char, google_breakpad::PageStdAllocator<unsigned char> > > >(unsigned char const*, unsigned char const*, __gnu_cxx::__normal_iterator<unsigned char*, std::vector<unsigned char, google_breakpad::PageStdAllocator<unsigned char> > >)
PUBLIC 5435b 0 void std::__advance<unsigned char const*, long>(unsigned char const*&, long, std::random_access_iterator_tag)
PUBLIC 5437f 0 unsigned char const& std::forward<unsigned char const&>(std::remove_reference<unsigned char const&>::type&)
PUBLIC 5438d 0 decltype (_S_construct({parm#1}, {parm#2}, (forward<unsigned char const&>)({parm#3}))) std::allocator_traits<google_breakpad::PageStdAllocator<unsigned char> >::construct<unsigned char, unsigned char const&>(google_breakpad::PageStdAllocator<unsigned char>&, unsigned char*, unsigned char const&)
PUBLIC 543c6 0 __gnu_cxx::new_allocator<unsigned char>::max_size() const
PUBLIC 543d8 0 google_breakpad::PageStdAllocator<unsigned char>::allocate(unsigned long, void const*)
PUBLIC 54424 0 bool std::operator==<unsigned char*>(std::move_iterator<unsigned char*> const&, std::move_iterator<unsigned char*> const&)
PUBLIC 5445d 0 std::enable_if<std::__and_<std::allocator_traits<google_breakpad::PageStdAllocator<unsigned char> >::__construct_helper<unsigned char<unsigned char> >::type>::value, void>::type std::allocator_traits<google_breakpad::PageStdAllocator<unsigned char> >::_S_construct<unsigned char, unsigned char>(google_breakpad::PageStdAllocator<unsigned char>&, unsigned char*, unsigned char&&)
PUBLIC 54496 0 std::_Iter_base<unsigned char*, false>::_S_base(unsigned char*)
PUBLIC 544a4 0 std::_Niter_base<unsigned char*>::iterator_type std::__niter_base<unsigned char*>(unsigned char*)
PUBLIC 544be 0 unsigned char* std::__copy_move_backward_a<true, unsigned char*, unsigned char*>(unsigned char*, unsigned char*, unsigned char*)
PUBLIC 544ef 0 std::_Iter_base<unsigned char const*, false>::_S_base(unsigned char const*)
PUBLIC 544fd 0 std::_Niter_base<unsigned char const*>::iterator_type std::__niter_base<unsigned char const*>(unsigned char const*)
PUBLIC 54517 0 std::_Niter_base<__gnu_cxx::__normal_iterator<unsigned char*, std::vector<unsigned char, google_breakpad::PageStdAllocator<unsigned char> > > >::iterator_type std::__niter_base<__gnu_cxx::__normal_iterator<unsigned char*, std::vector<unsigned char, google_breakpad::PageStdAllocator<unsigned char> > > >(__gnu_cxx::__normal_iterator<unsigned char*, std::vector<unsigned char, google_breakpad::PageStdAllocator<unsigned char> > >)
PUBLIC 54531 0 unsigned char* std::__copy_move_a<false, unsigned char const*, unsigned char*>(unsigned char const*, unsigned char const*, unsigned char*)
PUBLIC 54562 0 std::enable_if<std::__and_<std::allocator_traits<google_breakpad::PageStdAllocator<unsigned char> >::__construct_helper<unsigned char, unsigned char const&>::type>::value, void>::type std::allocator_traits<google_breakpad::PageStdAllocator<unsigned char> >::_S_construct<unsigned char, unsigned char const&>(google_breakpad::PageStdAllocator<unsigned char>&, unsigned char*, unsigned char const&)
PUBLIC 5459c 0 std::move_iterator<unsigned char*>::base() const
PUBLIC 545ae 0 void __gnu_cxx::new_allocator<unsigned char>::construct<unsigned char, unsigned char>(unsigned char*, unsigned char&&)
PUBLIC 545f2 0 unsigned char* std::__copy_move_backward<true, true, std::random_access_iterator_tag>::__copy_move_b<unsigned char>(unsigned char const*, unsigned char const*, unsigned char*)
PUBLIC 54656 0 std::_Iter_base<__gnu_cxx::__normal_iterator<unsigned char*, std::vector<unsigned char, google_breakpad::PageStdAllocator<unsigned char> > >, true>::_S_base(__gnu_cxx::__normal_iterator<unsigned char*, std::vector<unsigned char, google_breakpad::PageStdAllocator<unsigned char> > >)
PUBLIC 54673 0 unsigned char* std::__copy_move<false, true, std::random_access_iterator_tag>::__copy_m<unsigned char>(unsigned char const*, unsigned char const*, unsigned char*)
PUBLIC 546c4 0 void __gnu_cxx::new_allocator<unsigned char>::construct<unsigned char, unsigned char const&>(unsigned char*, unsigned char const&)
PUBLIC 54708 0 google_breakpad::LinuxPtraceDumper::~LinuxPtraceDumper()
PUBLIC 5474a 0 google_breakpad::LinuxPtraceDumper::~LinuxPtraceDumper()
PUBLIC 54770 0 sys_close
PUBLIC 547b9 0 sys_getpid
PUBLIC 547f6 0 sys_munmap
PUBLIC 54846 0 sys_open
PUBLIC 5489d 0 sys_read
PUBLIC 548f3 0 sys_stat
PUBLIC 54943 0 sys_mmap
PUBLIC 549cb 0 IsMappedFileOpenUnsafe(google_breakpad::MappingInfo const&)
PUBLIC 549fa 0 google_breakpad::LinuxDumper::LinuxDumper(int, char const*)
PUBLIC 54b8c 0 google_breakpad::LinuxDumper::~LinuxDumper()
PUBLIC 54c04 0 google_breakpad::LinuxDumper::~LinuxDumper()
PUBLIC 54c2a 0 google_breakpad::LinuxDumper::Init()
PUBLIC 54c8a 0 google_breakpad::LinuxDumper::LateInit()
PUBLIC 54c9a 0 google_breakpad::LinuxDumper::ElfFileIdentifierForMapping(google_breakpad::MappingInfo const&, bool, unsigned int, google_breakpad::wasteful_vector<unsigned char>&)
PUBLIC 54f76 0 google_breakpad::LinuxDumper::GetMappingAbsolutePath(google_breakpad::MappingInfo const&, char*) const
PUBLIC 54fe0 0 google_breakpad::(anonymous namespace)::ElfFileSoNameFromMappedFile(void const*, char*, unsigned long)
PUBLIC 5515a 0 google_breakpad::(anonymous namespace)::ElfFileSoName(google_breakpad::LinuxDumper const&, google_breakpad::MappingInfo const&, char*, unsigned long)
PUBLIC 5529c 0 google_breakpad::LinuxDumper::GetMappingEffectiveNameAndPath(google_breakpad::MappingInfo const&, char*, unsigned long, char*, unsigned long)
PUBLIC 553c0 0 google_breakpad::LinuxDumper::ReadAuxv()
PUBLIC 554d0 0 google_breakpad::LinuxDumper::EnumerateMappings()
PUBLIC 55b26 0 google_breakpad::LinuxDumper::GetStackInfo(void const**, unsigned long*, unsigned long)
PUBLIC 55bd2 0 google_breakpad::LinuxDumper::FindMapping(void const*) const
PUBLIC 55cb6 0 google_breakpad::LinuxDumper::HandleDeletedFileInMapping(char*) const
PUBLIC 55ee8 0 operator new(unsigned long, google_breakpad::PageAllocator&)
PUBLIC 55f0e 0 google_breakpad::LineReader::LineReader(int)
PUBLIC 55f38 0 google_breakpad::LineReader::GetNextLine(char const**, unsigned int*)
PUBLIC 560e2 0 google_breakpad::LineReader::PopLine(unsigned int)
PUBLIC 5616a 0 google_breakpad::MemoryRange::data() const
PUBLIC 5617c 0 google_breakpad::MemoryRange::length() const
PUBLIC 5618e 0 google_breakpad::MemoryMappedFile::data() const
PUBLIC 561a8 0 google_breakpad::MemoryMappedFile::size() const
PUBLIC 561c2 0 google_breakpad::wasteful_vector<int>::~wasteful_vector()
PUBLIC 561de 0 google_breakpad::wasteful_vector<google_breakpad::MappingInfo*>::~wasteful_vector()
PUBLIC 561fa 0 google_breakpad::wasteful_vector<unsigned long>::~wasteful_vector()
PUBLIC 56216 0 google_breakpad::PageStdAllocator<int>::~PageStdAllocator()
PUBLIC 56232 0 google_breakpad::wasteful_vector<int>::wasteful_vector(google_breakpad::PageAllocator*, unsigned int)
PUBLIC 562ae 0 std::vector<int, google_breakpad::PageStdAllocator<int> >::~vector()
PUBLIC 562f4 0 google_breakpad::PageStdAllocator<google_breakpad::MappingInfo*>::~PageStdAllocator()
PUBLIC 56310 0 google_breakpad::wasteful_vector<google_breakpad::MappingInfo*>::wasteful_vector(google_breakpad::PageAllocator*, unsigned int)
PUBLIC 5638c 0 std::vector<google_breakpad::MappingInfo*, google_breakpad::PageStdAllocator<google_breakpad::MappingInfo*> >::~vector()
PUBLIC 563d2 0 google_breakpad::PageStdAllocator<unsigned long>::~PageStdAllocator()
PUBLIC 563ee 0 google_breakpad::wasteful_vector<unsigned long>::wasteful_vector(google_breakpad::PageAllocator*, unsigned int)
PUBLIC 5646a 0 std::vector<unsigned long, google_breakpad::PageStdAllocator<unsigned long> >::~vector()
PUBLIC 564b0 0 std::vector<unsigned long, google_breakpad::PageStdAllocator<unsigned long> >::resize(unsigned long)
PUBLIC 5653e 0 std::vector<google_breakpad::MappingInfo*, google_breakpad::PageStdAllocator<google_breakpad::MappingInfo*> >::operator[](unsigned long)
PUBLIC 56560 0 std::vector<unsigned long, google_breakpad::PageStdAllocator<unsigned long> >::operator[](unsigned long)
PUBLIC 56582 0 std::vector<google_breakpad::MappingInfo*, google_breakpad::PageStdAllocator<google_breakpad::MappingInfo*> >::empty() const
PUBLIC 565c4 0 std::vector<google_breakpad::MappingInfo*, google_breakpad::PageStdAllocator<google_breakpad::MappingInfo*> >::back()
PUBLIC 56604 0 std::vector<google_breakpad::MappingInfo*, google_breakpad::PageStdAllocator<google_breakpad::MappingInfo*> >::resize(unsigned long)
PUBLIC 56692 0 std::vector<google_breakpad::MappingInfo*, google_breakpad::PageStdAllocator<google_breakpad::MappingInfo*> >::push_back(google_breakpad::MappingInfo* const&)
PUBLIC 566fe 0 bool google_breakpad::SafeReadLink<255ul>(char const*, char (&) [255ul])
PUBLIC 56728 0 google_breakpad::PageStdAllocator<int>::PageStdAllocator(google_breakpad::PageAllocator&)
PUBLIC 5676a 0 std::vector<int, google_breakpad::PageStdAllocator<int> >::vector(google_breakpad::PageStdAllocator<int> const&)
PUBLIC 56790 0 std::vector<int, google_breakpad::PageStdAllocator<int> >::reserve(unsigned long)
PUBLIC 568d8 0 std::_Vector_base<int, google_breakpad::PageStdAllocator<int> >::_Vector_impl::~_Vector_impl()
PUBLIC 568f4 0 std::_Vector_base<int, google_breakpad::PageStdAllocator<int> >::~_Vector_base()
PUBLIC 56946 0 std::_Vector_base<int, google_breakpad::PageStdAllocator<int> >::_M_get_Tp_allocator()
PUBLIC 56954 0 void std::_Destroy<int*, google_breakpad::PageStdAllocator<int> >(int*, int*, google_breakpad::PageStdAllocator<int>&)
PUBLIC 5699a 0 google_breakpad::PageStdAllocator<google_breakpad::MappingInfo*>::PageStdAllocator(google_breakpad::PageAllocator&)
PUBLIC 569dc 0 std::allocator<google_breakpad::MappingInfo*>::~allocator()
PUBLIC 569f8 0 std::vector<google_breakpad::MappingInfo*, google_breakpad::PageStdAllocator<google_breakpad::MappingInfo*> >::vector(google_breakpad::PageStdAllocator<google_breakpad::MappingInfo*> const&)
PUBLIC 56a1e 0 std::vector<google_breakpad::MappingInfo*, google_breakpad::PageStdAllocator<google_breakpad::MappingInfo*> >::reserve(unsigned long)
PUBLIC 56b66 0 std::_Vector_base<google_breakpad::MappingInfo*, google_breakpad::PageStdAllocator<google_breakpad::MappingInfo*> >::_Vector_impl::~_Vector_impl()
PUBLIC 56b82 0 std::_Vector_base<google_breakpad::MappingInfo*, google_breakpad::PageStdAllocator<google_breakpad::MappingInfo*> >::~_Vector_base()
PUBLIC 56bd4 0 std::_Vector_base<google_breakpad::MappingInfo*, google_breakpad::PageStdAllocator<google_breakpad::MappingInfo*> >::_M_get_Tp_allocator()
PUBLIC 56be2 0 void std::_Destroy<google_breakpad::MappingInfo**, google_breakpad::PageStdAllocator<google_breakpad::MappingInfo*> >(google_breakpad::MappingInfo**, google_breakpad::MappingInfo**, google_breakpad::PageStdAllocator<google_breakpad::MappingInfo*>&)
PUBLIC 56c28 0 google_breakpad::PageStdAllocator<unsigned long>::PageStdAllocator(google_breakpad::PageAllocator&)
PUBLIC 56c6a 0 std::allocator<unsigned long>::~allocator()
PUBLIC 56c86 0 std::vector<unsigned long, google_breakpad::PageStdAllocator<unsigned long> >::vector(google_breakpad::PageStdAllocator<unsigned long> const&)
PUBLIC 56cac 0 std::vector<unsigned long, google_breakpad::PageStdAllocator<unsigned long> >::reserve(unsigned long)
PUBLIC 56df4 0 std::_Vector_base<unsigned long, google_breakpad::PageStdAllocator<unsigned long> >::_Vector_impl::~_Vector_impl()
PUBLIC 56e10 0 std::_Vector_base<unsigned long, google_breakpad::PageStdAllocator<unsigned long> >::~_Vector_base()
PUBLIC 56e62 0 std::_Vector_base<unsigned long, google_breakpad::PageStdAllocator<unsigned long> >::_M_get_Tp_allocator()
PUBLIC 56e70 0 void std::_Destroy<unsigned long*, google_breakpad::PageStdAllocator<unsigned long> >(unsigned long*, unsigned long*, google_breakpad::PageStdAllocator<unsigned long>&)
PUBLIC 56eb6 0 std::vector<unsigned long, google_breakpad::PageStdAllocator<unsigned long> >::size() const
PUBLIC 56ede 0 std::vector<unsigned long, google_breakpad::PageStdAllocator<unsigned long> >::_M_default_append(unsigned long)
PUBLIC 570ec 0 std::vector<unsigned long, google_breakpad::PageStdAllocator<unsigned long> >::_M_erase_at_end(unsigned long*)
PUBLIC 57132 0 std::vector<google_breakpad::MappingInfo*, google_breakpad::PageStdAllocator<google_breakpad::MappingInfo*> >::begin() const
PUBLIC 57164 0 std::vector<google_breakpad::MappingInfo*, google_breakpad::PageStdAllocator<google_breakpad::MappingInfo*> >::end() const
PUBLIC 57195 0 bool __gnu_cxx::operator==<google_breakpad::MappingInfo* const*, std::vector<google_breakpad::MappingInfo*, google_breakpad::PageStdAllocator<google_breakpad::MappingInfo*> > >(__gnu_cxx::__normal_iterator<google_breakpad::MappingInfo* const*, std::vector<google_breakpad::MappingInfo*, google_breakpad::PageStdAllocator<google_breakpad::MappingInfo*> > > const&, __gnu_cxx::__normal_iterator<google_breakpad::MappingInfo* const*, std::vector<google_breakpad::MappingInfo*, google_breakpad::PageStdAllocator<google_breakpad::MappingInfo*> > > const&)
PUBLIC 571d2 0 std::vector<google_breakpad::MappingInfo*, google_breakpad::PageStdAllocator<google_breakpad::MappingInfo*> >::end()
PUBLIC 571fc 0 __gnu_cxx::__normal_iterator<google_breakpad::MappingInfo**, std::vector<google_breakpad::MappingInfo*, google_breakpad::PageStdAllocator<google_breakpad::MappingInfo*> > >::operator-(long) const
PUBLIC 5723e 0 __gnu_cxx::__normal_iterator<google_breakpad::MappingInfo**, std::vector<google_breakpad::MappingInfo*, google_breakpad::PageStdAllocator<google_breakpad::MappingInfo*> > >::operator*() const
PUBLIC 57250 0 std::vector<google_breakpad::MappingInfo*, google_breakpad::PageStdAllocator<google_breakpad::MappingInfo*> >::_M_default_append(unsigned long)
PUBLIC 5745e 0 std::vector<google_breakpad::MappingInfo*, google_breakpad::PageStdAllocator<google_breakpad::MappingInfo*> >::_M_erase_at_end(google_breakpad::MappingInfo**)
PUBLIC 574a3 0 google_breakpad::MappingInfo* const& std::forward<google_breakpad::MappingInfo* const&>(std::remove_reference<google_breakpad::MappingInfo* const&>::type&)
PUBLIC 574b1 0 _ZNSt16allocator_traitsIN15google_breakpad16PageStdAllocatorIPNS0_11MappingInfoEEEE9constructIS3_IRKS3_EEEDTcl12_S_constructfp_fp0_spcl7forwardIT0_Efp1_EEERS4_PT_DpOS9_
PUBLIC 574ea 0 void std::vector<google_breakpad::MappingInfo*, google_breakpad::PageStdAllocator<google_breakpad::MappingInfo*> >::_M_emplace_back_aux<google_breakpad::MappingInfo* const&>(google_breakpad::MappingInfo* const&)
PUBLIC 576dc 0 std::_Vector_base<int, google_breakpad::PageStdAllocator<int> >::_Vector_base(google_breakpad::PageStdAllocator<int> const&)
PUBLIC 57702 0 std::vector<int, google_breakpad::PageStdAllocator<int> >::max_size() const
PUBLIC 57724 0 std::vector<int, google_breakpad::PageStdAllocator<int> >::capacity() const
PUBLIC 5774c 0 int* std::vector<int, google_breakpad::PageStdAllocator<int> >::_M_allocate_and_copy<std::move_iterator<int*> >(unsigned long, std::move_iterator<int*>, std::move_iterator<int*>)
PUBLIC 577e4 0 std::_Vector_base<int, google_breakpad::PageStdAllocator<int> >::_M_deallocate(int*, unsigned long)
PUBLIC 57819 0 int* std::__addressof<int>(int&)
PUBLIC 57827 0 void std::allocator_traits<google_breakpad::PageStdAllocator<int> >::destroy<int>(google_breakpad::PageStdAllocator<int>&, int*)
PUBLIC 5784e 0 std::allocator<google_breakpad::MappingInfo*>::allocator()
PUBLIC 5786a 0 __gnu_cxx::new_allocator<google_breakpad::MappingInfo*>::~new_allocator()
PUBLIC 57876 0 std::_Vector_base<google_breakpad::MappingInfo*, google_breakpad::PageStdAllocator<google_breakpad::MappingInfo*> >::_Vector_base(google_breakpad::PageStdAllocator<google_breakpad::MappingInfo*> const&)
PUBLIC 5789c 0 std::vector<google_breakpad::MappingInfo*, google_breakpad::PageStdAllocator<google_breakpad::MappingInfo*> >::max_size() const
PUBLIC 578be 0 std::vector<google_breakpad::MappingInfo*, google_breakpad::PageStdAllocator<google_breakpad::MappingInfo*> >::capacity() const
PUBLIC 578e5 0 std::move_iterator<google_breakpad::MappingInfo**> std::__make_move_if_noexcept_iterator<google_breakpad::MappingInfo**, std::move_iterator<google_breakpad::MappingInfo**> >(google_breakpad::MappingInfo**)
PUBLIC 5790a 0 google_breakpad::MappingInfo** std::vector<google_breakpad::MappingInfo*, google_breakpad::PageStdAllocator<google_breakpad::MappingInfo*> >::_M_allocate_and_copy<std::move_iterator<google_breakpad::MappingInfo**> >(unsigned long, std::move_iterator<google_breakpad::MappingInfo**>, std::move_iterator<google_breakpad::MappingInfo**>)
PUBLIC 579a2 0 std::_Vector_base<google_breakpad::MappingInfo*, google_breakpad::PageStdAllocator<google_breakpad::MappingInfo*> >::_M_deallocate(google_breakpad::MappingInfo**, unsigned long)
PUBLIC 579d7 0 google_breakpad::MappingInfo** std::__addressof<google_breakpad::MappingInfo*>(google_breakpad::MappingInfo*&)
PUBLIC 579e5 0 void std::allocator_traits<google_breakpad::PageStdAllocator<google_breakpad::MappingInfo*> >::destroy<google_breakpad::MappingInfo*>(google_breakpad::PageStdAllocator<google_breakpad::MappingInfo*>&, google_breakpad::MappingInfo**)
PUBLIC 57a0c 0 std::allocator<unsigned long>::allocator()
PUBLIC 57a28 0 __gnu_cxx::new_allocator<unsigned long>::~new_allocator()
PUBLIC 57a34 0 std::_Vector_base<unsigned long, google_breakpad::PageStdAllocator<unsigned long> >::_Vector_base(google_breakpad::PageStdAllocator<unsigned long> const&)
PUBLIC 57a5a 0 std::vector<unsigned long, google_breakpad::PageStdAllocator<unsigned long> >::max_size() const
PUBLIC 57a7c 0 std::vector<unsigned long, google_breakpad::PageStdAllocator<unsigned long> >::capacity() const
PUBLIC 57aa3 0 std::move_iterator<unsigned long*> std::__make_move_if_noexcept_iterator<unsigned long*, std::move_iterator<unsigned long*> >(unsigned long*)
PUBLIC 57ac8 0 unsigned long* std::vector<unsigned long, google_breakpad::PageStdAllocator<unsigned long> >::_M_allocate_and_copy<std::move_iterator<unsigned long*> >(unsigned long, std::move_iterator<unsigned long*>, std::move_iterator<unsigned long*>)
PUBLIC 57b60 0 std::_Vector_base<unsigned long, google_breakpad::PageStdAllocator<unsigned long> >::_M_deallocate(unsigned long*, unsigned long)
PUBLIC 57b95 0 unsigned long* std::__addressof<unsigned long>(unsigned long&)
PUBLIC 57ba3 0 void std::allocator_traits<google_breakpad::PageStdAllocator<unsigned long> >::destroy<unsigned long>(google_breakpad::PageStdAllocator<unsigned long>&, unsigned long*)
PUBLIC 57bc9 0 unsigned long* std::__uninitialized_default_n_a<unsigned long*, unsigned long, google_breakpad::PageStdAllocator<unsigned long> >(unsigned long*, unsigned long, google_breakpad::PageStdAllocator<unsigned long>&)
PUBLIC 57c5c 0 std::vector<unsigned long, google_breakpad::PageStdAllocator<unsigned long> >::_M_check_len(unsigned long, char const*) const
PUBLIC 57d26 0 std::_Vector_base<unsigned long, google_breakpad::PageStdAllocator<unsigned long> >::_M_allocate(unsigned long)
PUBLIC 57d59 0 unsigned long* std::__uninitialized_move_if_noexcept_a<unsigned long*, unsigned long*, google_breakpad::PageStdAllocator<unsigned long> >(unsigned long*, unsigned long*, unsigned long*, google_breakpad::PageStdAllocator<unsigned long>&)
PUBLIC 57dae 0 __gnu_cxx::__normal_iterator<google_breakpad::MappingInfo* const*, std::vector<google_breakpad::MappingInfo*, google_breakpad::PageStdAllocator<google_breakpad::MappingInfo*> > >::__normal_iterator(google_breakpad::MappingInfo* const* const&)
PUBLIC 57dcc 0 __gnu_cxx::__normal_iterator<google_breakpad::MappingInfo* const*, std::vector<google_breakpad::MappingInfo*, google_breakpad::PageStdAllocator<google_breakpad::MappingInfo*> > >::base() const
PUBLIC 57dda 0 __gnu_cxx::__normal_iterator<google_breakpad::MappingInfo**, std::vector<google_breakpad::MappingInfo*, google_breakpad::PageStdAllocator<google_breakpad::MappingInfo*> > >::__normal_iterator(google_breakpad::MappingInfo** const&)
PUBLIC 57df7 0 google_breakpad::MappingInfo** std::__uninitialized_default_n_a<google_breakpad::MappingInfo**, unsigned long, google_breakpad::PageStdAllocator<google_breakpad::MappingInfo*> >(google_breakpad::MappingInfo**, unsigned long, google_breakpad::PageStdAllocator<google_breakpad::MappingInfo*>&)
PUBLIC 57e8a 0 std::vector<google_breakpad::MappingInfo*, google_breakpad::PageStdAllocator<google_breakpad::MappingInfo*> >::_M_check_len(unsigned long, char const*) const
PUBLIC 57f54 0 std::_Vector_base<google_breakpad::MappingInfo*, google_breakpad::PageStdAllocator<google_breakpad::MappingInfo*> >::_M_allocate(unsigned long)
PUBLIC 57f87 0 google_breakpad::MappingInfo** std::__uninitialized_move_if_noexcept_a<google_breakpad::MappingInfo**, google_breakpad::MappingInfo**, google_breakpad::PageStdAllocator<google_breakpad::MappingInfo*> >(google_breakpad::MappingInfo**, google_breakpad::MappingInfo**, google_breakpad::MappingInfo**, google_breakpad::PageStdAllocator<google_breakpad::MappingInfo*>&)
PUBLIC 57fdb 0 _ZNSt16allocator_traitsIN15google_breakpad16PageStdAllocatorIPNS0_11MappingInfoEEEE12_S_constructIS3_IRKS3_EEENSt9enable_ifIXsrSt6__and_IINS5_18__construct_helperIT_IDpT0_EE4typeEEE5valueEvE4typeERS4_PSC_DpOSD_
PUBLIC 58014 0 google_breakpad::PageStdAllocator<int>::PageStdAllocator(google_breakpad::PageStdAllocator<int> const&)
PUBLIC 58068 0 std::_Vector_base<int, google_breakpad::PageStdAllocator<int> >::_Vector_impl::_Vector_impl(google_breakpad::PageStdAllocator<int> const&)
PUBLIC 580b2 0 std::allocator_traits<google_breakpad::PageStdAllocator<int> >::max_size(google_breakpad::PageStdAllocator<int> const&)
PUBLIC 580d2 0 std::_Vector_base<int, google_breakpad::PageStdAllocator<int> >::_M_get_Tp_allocator() const
PUBLIC 580e0 0 std::_Vector_base<int, google_breakpad::PageStdAllocator<int> >::_M_allocate(unsigned long)
PUBLIC 58113 0 int* std::__uninitialized_copy_a<std::move_iterator<int*>, int*, google_breakpad::PageStdAllocator<int> >(std::move_iterator<int*>, std::move_iterator<int*>, int*, google_breakpad::PageStdAllocator<int>&)
PUBLIC 581d2 0 std::allocator_traits<google_breakpad::PageStdAllocator<int> >::deallocate(google_breakpad::PageStdAllocator<int>&, int*, unsigned long)
PUBLIC 58200 0 std::enable_if<std::__and_<std::allocator_traits<google_breakpad::PageStdAllocator<int> >::__destroy_helper<int>::type>::value, void>::type std::allocator_traits<google_breakpad::PageStdAllocator<int> >::_S_destroy<int>(google_breakpad::PageStdAllocator<int>&, int*)
PUBLIC 58226 0 __gnu_cxx::new_allocator<google_breakpad::MappingInfo*>::new_allocator()
PUBLIC 58232 0 google_breakpad::PageStdAllocator<google_breakpad::MappingInfo*>::PageStdAllocator(google_breakpad::PageStdAllocator<google_breakpad::MappingInfo*> const&)
PUBLIC 58286 0 std::_Vector_base<google_breakpad::MappingInfo*, google_breakpad::PageStdAllocator<google_breakpad::MappingInfo*> >::_Vector_impl::_Vector_impl(google_breakpad::PageStdAllocator<google_breakpad::MappingInfo*> const&)
PUBLIC 582d0 0 std::allocator_traits<google_breakpad::PageStdAllocator<google_breakpad::MappingInfo*> >::max_size(google_breakpad::PageStdAllocator<google_breakpad::MappingInfo*> const&)
PUBLIC 582f0 0 std::_Vector_base<google_breakpad::MappingInfo*, google_breakpad::PageStdAllocator<google_breakpad::MappingInfo*> >::_M_get_Tp_allocator() const
PUBLIC 582fe 0 std::move_iterator<google_breakpad::MappingInfo**>::move_iterator(google_breakpad::MappingInfo**)
PUBLIC 58318 0 google_breakpad::MappingInfo** std::__uninitialized_copy_a<std::move_iterator<google_breakpad::MappingInfo**>, google_breakpad::MappingInfo**, google_breakpad::PageStdAllocator<google_breakpad::MappingInfo*> >(std::move_iterator<google_breakpad::MappingInfo**>, std::move_iterator<google_breakpad::MappingInfo**>, google_breakpad::MappingInfo**, google_breakpad::PageStdAllocator<google_breakpad::MappingInfo*>&)
PUBLIC 583d7 0 std::allocator_traits<google_breakpad::PageStdAllocator<google_breakpad::MappingInfo*> >::deallocate(google_breakpad::PageStdAllocator<google_breakpad::MappingInfo*>&, google_breakpad::MappingInfo**, unsigned long)
PUBLIC 58405 0 std::enable_if<std::__and_<std::allocator_traits<google_breakpad::PageStdAllocator<google_breakpad::MappingInfo*> >::__destroy_helper<google_breakpad::MappingInfo*>::type>::value, void>::type std::allocator_traits<google_breakpad::PageStdAllocator<google_breakpad::MappingInfo*> >::_S_destroy<google_breakpad::MappingInfo*>(google_breakpad::PageStdAllocator<google_breakpad::MappingInfo*>&, google_breakpad::MappingInfo**)
PUBLIC 5842c 0 __gnu_cxx::new_allocator<unsigned long>::new_allocator()
PUBLIC 58438 0 google_breakpad::PageStdAllocator<unsigned long>::PageStdAllocator(google_breakpad::PageStdAllocator<unsigned long> const&)
PUBLIC 5848c 0 std::_Vector_base<unsigned long, google_breakpad::PageStdAllocator<unsigned long> >::_Vector_impl::_Vector_impl(google_breakpad::PageStdAllocator<unsigned long> const&)
PUBLIC 584d6 0 std::allocator_traits<google_breakpad::PageStdAllocator<unsigned long> >::max_size(google_breakpad::PageStdAllocator<unsigned long> const&)
PUBLIC 584f6 0 std::_Vector_base<unsigned long, google_breakpad::PageStdAllocator<unsigned long> >::_M_get_Tp_allocator() const
PUBLIC 58504 0 std::move_iterator<unsigned long*>::move_iterator(unsigned long*)
PUBLIC 5851e 0 unsigned long* std::__uninitialized_copy_a<std::move_iterator<unsigned long*>, unsigned long*, google_breakpad::PageStdAllocator<unsigned long> >(std::move_iterator<unsigned long*>, std::move_iterator<unsigned long*>, unsigned long*, google_breakpad::PageStdAllocator<unsigned long>&)
PUBLIC 585dd 0 std::allocator_traits<google_breakpad::PageStdAllocator<unsigned long> >::deallocate(google_breakpad::PageStdAllocator<unsigned long>&, unsigned long*, unsigned long)
PUBLIC 5860b 0 std::enable_if<std::__and_<std::allocator_traits<google_breakpad::PageStdAllocator<unsigned long> >::__destroy_helper<unsigned long>::type>::value, void>::type std::allocator_traits<google_breakpad::PageStdAllocator<unsigned long> >::_S_destroy<unsigned long>(google_breakpad::PageStdAllocator<unsigned long>&, unsigned long*)
PUBLIC 58631 0 decltype (_S_construct({parm#1}, {parm#2})) std::allocator_traits<google_breakpad::PageStdAllocator<unsigned long> >::construct<unsigned long>(google_breakpad::PageStdAllocator<unsigned long>&, unsigned long*)
PUBLIC 58657 0 std::allocator_traits<google_breakpad::PageStdAllocator<unsigned long> >::allocate(google_breakpad::PageStdAllocator<unsigned long>&, unsigned long)
PUBLIC 58681 0 _ZNSt16allocator_traitsIN15google_breakpad16PageStdAllocatorIPNS0_11MappingInfoEEEE9constructIS3_IEEEDTcl12_S_constructfp_fp0_spcl7forwardIT0_Efp1_EEERS4_PT_DpOS7_
PUBLIC 586a7 0 std::allocator_traits<google_breakpad::PageStdAllocator<google_breakpad::MappingInfo*> >::allocate(google_breakpad::PageStdAllocator<google_breakpad::MappingInfo*>&, unsigned long)
PUBLIC 586d2 0 _ZN9__gnu_cxx13new_allocatorIPN15google_breakpad11MappingInfoEE9constructIS3_IRKS3_EEEvPT_DpOT0_
PUBLIC 58718 0 std::allocator<int>::allocator(std::allocator<int> const&)
PUBLIC 5873e 0 unsigned long std::allocator_traits<google_breakpad::PageStdAllocator<int> >::_S_max_size<google_breakpad::PageStdAllocator<int> const, void>(google_breakpad::PageStdAllocator<int> const&, int)
PUBLIC 5875b 0 std::allocator_traits<google_breakpad::PageStdAllocator<int> >::allocate(google_breakpad::PageStdAllocator<int>&, unsigned long)
PUBLIC 58785 0 bool std::operator!=<int*>(std::move_iterator<int*> const&, std::move_iterator<int*> const&)
PUBLIC 587ae 0 std::move_iterator<int*>::operator++()
PUBLIC 587ce 0 std::move_iterator<int*>::operator*() const
PUBLIC 587df 0 decltype (_S_construct({parm#1}, {parm#2}, (forward<int>)({parm#3}))) std::allocator_traits<google_breakpad::PageStdAllocator<int> >::construct<int, int>(google_breakpad::PageStdAllocator<int>&, int*, int&&)
PUBLIC 58818 0 google_breakpad::PageStdAllocator<int>::deallocate(int*, unsigned long)
PUBLIC 5882c 0 std::allocator<google_breakpad::MappingInfo*>::allocator(std::allocator<google_breakpad::MappingInfo*> const&)
PUBLIC 58852 0 unsigned long std::allocator_traits<google_breakpad::PageStdAllocator<google_breakpad::MappingInfo*> >::_S_max_size<google_breakpad::PageStdAllocator<google_breakpad::MappingInfo*> const, void>(google_breakpad::PageStdAllocator<google_breakpad::MappingInfo*> const&, int)
PUBLIC 5886f 0 bool std::operator!=<google_breakpad::MappingInfo**>(std::move_iterator<google_breakpad::MappingInfo**> const&, std::move_iterator<google_breakpad::MappingInfo**> const&)
PUBLIC 58898 0 std::move_iterator<google_breakpad::MappingInfo**>::operator++()
PUBLIC 588b8 0 std::move_iterator<google_breakpad::MappingInfo**>::operator*() const
PUBLIC 588c9 0 google_breakpad::MappingInfo*&& std::forward<google_breakpad::MappingInfo*>(std::remove_reference<google_breakpad::MappingInfo*>::type&)
PUBLIC 588d7 0 decltype (_S_construct({parm#1}, {parm#2}, (forward<google_breakpad::MappingInfo*>)({parm#3}))) std::allocator_traits<google_breakpad::PageStdAllocator<google_breakpad::MappingInfo*> >::construct<google_breakpad::MappingInfo*, google_breakpad::MappingInfo*>(google_breakpad::PageStdAllocator<google_breakpad::MappingInfo*>&, google_breakpad::MappingInfo**, google_breakpad::MappingInfo*&&)
PUBLIC 58910 0 google_breakpad::PageStdAllocator<google_breakpad::MappingInfo*>::deallocate(google_breakpad::MappingInfo**, unsigned long)
PUBLIC 58924 0 void __gnu_cxx::new_allocator<google_breakpad::MappingInfo*>::destroy<google_breakpad::MappingInfo*>(google_breakpad::MappingInfo**)
PUBLIC 58934 0 std::allocator<unsigned long>::allocator(std::allocator<unsigned long> const&)
PUBLIC 5895a 0 unsigned long std::allocator_traits<google_breakpad::PageStdAllocator<unsigned long> >::_S_max_size<google_breakpad::PageStdAllocator<unsigned long> const, void>(google_breakpad::PageStdAllocator<unsigned long> const&, int)
PUBLIC 58977 0 bool std::operator!=<unsigned long*>(std::move_iterator<unsigned long*> const&, std::move_iterator<unsigned long*> const&)
PUBLIC 589a0 0 std::move_iterator<unsigned long*>::operator++()
PUBLIC 589c0 0 std::move_iterator<unsigned long*>::operator*() const
PUBLIC 589d1 0 unsigned long&& std::forward<unsigned long>(std::remove_reference<unsigned long>::type&)
PUBLIC 589df 0 decltype (_S_construct({parm#1}, {parm#2}, (forward<unsigned long>)({parm#3}))) std::allocator_traits<google_breakpad::PageStdAllocator<unsigned long> >::construct<unsigned long, unsigned long>(google_breakpad::PageStdAllocator<unsigned long>&, unsigned long*, unsigned long&&)
PUBLIC 58a18 0 google_breakpad::PageStdAllocator<unsigned long>::deallocate(unsigned long*, unsigned long)
PUBLIC 58a2c 0 void __gnu_cxx::new_allocator<unsigned long>::destroy<unsigned long>(unsigned long*)
PUBLIC 58a3b 0 std::enable_if<std::__and_<std::allocator_traits<google_breakpad::PageStdAllocator<unsigned long> >::__construct_helper<unsigned long>::type>::value, void>::type std::allocator_traits<google_breakpad::PageStdAllocator<unsigned long> >::_S_construct<unsigned long>(google_breakpad::PageStdAllocator<unsigned long>&, unsigned long*)
PUBLIC 58a62 0 google_breakpad::PageStdAllocator<unsigned long>::allocate(unsigned long, void const*)
PUBLIC 58ab2 0 std::enable_if<std::__and_<std::allocator_traits<google_breakpad::PageStdAllocator<google_breakpad::MappingInfo*> >::__construct_helper<google_breakpad::MappingInfo*>::type>::value, void>::type std::allocator_traits<google_breakpad::PageStdAllocator<google_breakpad::MappingInfo*> >::_S_construct<google_breakpad::MappingInfo*>(google_breakpad::PageStdAllocator<google_breakpad::MappingInfo*>&, google_breakpad::MappingInfo**)
PUBLIC 58ad8 0 google_breakpad::PageStdAllocator<google_breakpad::MappingInfo*>::allocate(unsigned long, void const*)
PUBLIC 58b28 0 __gnu_cxx::new_allocator<int>::new_allocator(__gnu_cxx::new_allocator<int> const&)
PUBLIC 58b38 0 google_breakpad::PageStdAllocator<int>::allocate(unsigned long, void const*)
PUBLIC 58b88 0 bool std::operator==<int*>(std::move_iterator<int*> const&, std::move_iterator<int*> const&)
PUBLIC 58bc1 0 std::enable_if<std::__and_<std::allocator_traits<google_breakpad::PageStdAllocator<int> >::__construct_helper<int, int>::type>::value, void>::type std::allocator_traits<google_breakpad::PageStdAllocator<int> >::_S_construct<int, int>(google_breakpad::PageStdAllocator<int>&, int*, int&&)
PUBLIC 58bfa 0 __gnu_cxx::new_allocator<google_breakpad::MappingInfo*>::new_allocator(__gnu_cxx::new_allocator<google_breakpad::MappingInfo*> const&)
PUBLIC 58c0a 0 __gnu_cxx::new_allocator<google_breakpad::MappingInfo*>::max_size() const
PUBLIC 58c1e 0 bool std::operator==<google_breakpad::MappingInfo**>(std::move_iterator<google_breakpad::MappingInfo**> const&, std::move_iterator<google_breakpad::MappingInfo**> const&)
PUBLIC 58c57 0 std::enable_if<std::__and_<std::allocator_traits<google_breakpad::PageStdAllocator<google_breakpad::MappingInfo*> >::__construct_helper<google_breakpad::MappingInfo*, google_breakpad::MappingInfo*>::type>::value, void>::type std::allocator_traits<google_breakpad::PageStdAllocator<google_breakpad::MappingInfo*> >::_S_construct<google_breakpad::MappingInfo*, google_breakpad::MappingInfo*>(google_breakpad::PageStdAllocator<google_breakpad::MappingInfo*>&, google_breakpad::MappingInfo**, google_breakpad::MappingInfo*&&)
PUBLIC 58c90 0 __gnu_cxx::new_allocator<unsigned long>::new_allocator(__gnu_cxx::new_allocator<unsigned long> const&)
PUBLIC 58ca0 0 __gnu_cxx::new_allocator<unsigned long>::max_size() const
PUBLIC 58cb4 0 bool std::operator==<unsigned long*>(std::move_iterator<unsigned long*> const&, std::move_iterator<unsigned long*> const&)
PUBLIC 58ced 0 std::enable_if<std::__and_<std::allocator_traits<google_breakpad::PageStdAllocator<unsigned long> >::__construct_helper<unsigned long<unsigned long> >::type>::value, void>::type std::allocator_traits<google_breakpad::PageStdAllocator<unsigned long> >::_S_construct<unsigned long, unsigned long>(google_breakpad::PageStdAllocator<unsigned long>&, unsigned long*, unsigned long&&)
PUBLIC 58d26 0 void __gnu_cxx::new_allocator<unsigned long>::construct<unsigned long>(unsigned long*)
PUBLIC 58d56 0 void __gnu_cxx::new_allocator<google_breakpad::MappingInfo*>::construct<google_breakpad::MappingInfo*>(google_breakpad::MappingInfo**)
PUBLIC 58d86 0 std::move_iterator<google_breakpad::MappingInfo**>::base() const
PUBLIC 58d98 0 _ZN9__gnu_cxx13new_allocatorIPN15google_breakpad11MappingInfoEE9constructIS3_IS3_EEEvPT_DpOT0_
PUBLIC 58dde 0 std::move_iterator<unsigned long*>::base() const
PUBLIC 58df0 0 void __gnu_cxx::new_allocator<unsigned long>::construct<unsigned long, unsigned long>(unsigned long*, unsigned long&&)
PUBLIC 58e36 0 sys_close
PUBLIC 58e7f 0 sys_getdents
PUBLIC 58ed6 0 sys_open
PUBLIC 58f2d 0 sys_ptrace
PUBLIC 58f8f 0 sys_read
PUBLIC 58fe5 0 sys_mmap
PUBLIC 5906d 0 sys_wait4
PUBLIC 590cf 0 sys_waitpid
PUBLIC 590f9 0 SuspendThread(int)
PUBLIC 59212 0 ResumeThread(int)
PUBLIC 59240 0 google_breakpad::LinuxPtraceDumper::LinuxPtraceDumper(int)
PUBLIC 59288 0 google_breakpad::LinuxPtraceDumper::BuildProcPath(char*, int, char const*) const
PUBLIC 5938e 0 google_breakpad::LinuxPtraceDumper::CopyFromProcess(void*, int, void const*, unsigned long)
PUBLIC 59458 0 google_breakpad::LinuxPtraceDumper::GetThreadInfoByIndex(unsigned long, google_breakpad::ThreadInfo*)
PUBLIC 597ea 0 google_breakpad::LinuxPtraceDumper::IsPostMortem() const
PUBLIC 597fa 0 google_breakpad::LinuxPtraceDumper::ThreadsSuspend()
PUBLIC 59956 0 google_breakpad::LinuxPtraceDumper::ThreadsResume()
PUBLIC 599ec 0 google_breakpad::LinuxPtraceDumper::EnumerateThreads()
PUBLIC 59b96 0 google_breakpad::DirectoryReader::DirectoryReader(int)
PUBLIC 59bb8 0 google_breakpad::DirectoryReader::GetNextEntry(char const**)
PUBLIC 59c8a 0 google_breakpad::DirectoryReader::PopEntry()
PUBLIC 59d04 0 std::vector<int, google_breakpad::PageStdAllocator<int> >::operator[](unsigned long)
PUBLIC 59d26 0 std::vector<int, google_breakpad::PageStdAllocator<int> >::resize(unsigned long)
PUBLIC 59db4 0 std::vector<int, google_breakpad::PageStdAllocator<int> >::push_back(int const&)
PUBLIC 59e20 0 std::vector<int, google_breakpad::PageStdAllocator<int> >::_M_default_append(unsigned long)
PUBLIC 5a02e 0 std::vector<int, google_breakpad::PageStdAllocator<int> >::_M_erase_at_end(int*)
PUBLIC 5a073 0 int const& std::forward<int const&>(std::remove_reference<int const&>::type&)
PUBLIC 5a081 0 decltype (_S_construct({parm#1}, {parm#2}, (forward<int const&>)({parm#3}))) std::allocator_traits<google_breakpad::PageStdAllocator<int> >::construct<int, int const&>(google_breakpad::PageStdAllocator<int>&, int*, int const&)
PUBLIC 5a0ba 0 void std::vector<int, google_breakpad::PageStdAllocator<int> >::_M_emplace_back_aux<int const&>(int const&)
PUBLIC 5a2ab 0 int* std::__uninitialized_default_n_a<int*, unsigned long, google_breakpad::PageStdAllocator<int> >(int*, unsigned long, google_breakpad::PageStdAllocator<int>&)
PUBLIC 5a33e 0 std::vector<int, google_breakpad::PageStdAllocator<int> >::_M_check_len(unsigned long, char const*) const
PUBLIC 5a407 0 int* std::__uninitialized_move_if_noexcept_a<int*, int*, google_breakpad::PageStdAllocator<int> >(int*, int*, int*, google_breakpad::PageStdAllocator<int>&)
PUBLIC 5a45b 0 std::enable_if<std::__and_<std::allocator_traits<google_breakpad::PageStdAllocator<int> >::__construct_helper<int, int const&>::type>::value, void>::type std::allocator_traits<google_breakpad::PageStdAllocator<int> >::_S_construct<int, int const&>(google_breakpad::PageStdAllocator<int>&, int*, int const&)
PUBLIC 5a494 0 decltype (_S_construct({parm#1}, {parm#2})) std::allocator_traits<google_breakpad::PageStdAllocator<int> >::construct<int>(google_breakpad::PageStdAllocator<int>&, int*)
PUBLIC 5a4ba 0 void __gnu_cxx::new_allocator<int>::construct<int, int const&>(int*, int const&)
PUBLIC 5a4fd 0 std::enable_if<std::__and_<std::allocator_traits<google_breakpad::PageStdAllocator<int> >::__construct_helper<int<> >::type>::value, void>::type std::allocator_traits<google_breakpad::PageStdAllocator<int> >::_S_construct<int>(google_breakpad::PageStdAllocator<int>&, int*)
PUBLIC 5a524 0 void __gnu_cxx::new_allocator<int>::construct<int>(int*)
PUBLIC 5a554 0 sys_close
PUBLIC 5a59d 0 sys_munmap
PUBLIC 5a5ed 0 sys_open
PUBLIC 5a644 0 sys_read
PUBLIC 5a69a 0 sys_mmap
PUBLIC 5a722 0 (anonymous namespace)::MinidumpWriter::MinidumpWriter(char const*, int, google_breakpad::ExceptionHandler::CrashContext const*, std::__cxx11::list<google_breakpad::MappingEntry, std::allocator<google_breakpad::MappingEntry> > const&, std::__cxx11::list<google_breakpad::AppMemory, std::allocator<google_breakpad::AppMemory> > const&, google_breakpad::LinuxDumper*)
PUBLIC 5a892 0 (anonymous namespace)::MinidumpWriter::Init()
PUBLIC 5a972 0 (anonymous namespace)::MinidumpWriter::~MinidumpWriter()
PUBLIC 5a9dc 0 (anonymous namespace)::MinidumpWriter::Dump()
PUBLIC 5b066 0 (anonymous namespace)::MinidumpWriter::FillThreadStack(MDRawThread*, unsigned long, int, unsigned char**)
PUBLIC 5b1f8 0 (anonymous namespace)::MinidumpWriter::WriteThreadListStream(MDRawDirectory*)
PUBLIC 5b9fc 0 (anonymous namespace)::MinidumpWriter::WriteAppMemory()
PUBLIC 5bba7 0 (anonymous namespace)::MinidumpWriter::ShouldIncludeMapping(google_breakpad::MappingInfo const&)
PUBLIC 5bbf6 0 (anonymous namespace)::MinidumpWriter::HaveMappingInfo(google_breakpad::MappingInfo const&)
PUBLIC 5bcda 0 (anonymous namespace)::MinidumpWriter::WriteMappings(MDRawDirectory*)
PUBLIC 5c066 0 (anonymous namespace)::MinidumpWriter::FillRawModule(google_breakpad::MappingInfo const&, bool, unsigned int, MDRawModule*, unsigned char const*)
PUBLIC 5c348 0 (anonymous namespace)::MinidumpWriter::WriteMemoryListStream(MDRawDirectory*)
PUBLIC 5c4b0 0 (anonymous namespace)::MinidumpWriter::WriteExceptionStream(MDRawDirectory*)
PUBLIC 5c626 0 (anonymous namespace)::MinidumpWriter::WriteSystemInfoStream(MDRawDirectory*)
PUBLIC 5c716 0 (anonymous namespace)::MinidumpWriter::WriteDSODebugStream(MDRawDirectory*)
PUBLIC 5ced4 0 (anonymous namespace)::MinidumpWriter::set_minidump_size_limit(long)
PUBLIC 5cef0 0 (anonymous namespace)::MinidumpWriter::Alloc(unsigned int)
PUBLIC 5cf26 0 (anonymous namespace)::MinidumpWriter::GetCrashThread() const
PUBLIC 5cf44 0 (anonymous namespace)::MinidumpWriter::NullifyDirectoryEntry(MDRawDirectory*)
PUBLIC 5cf74 0 (anonymous namespace)::MinidumpWriter::WriteCPUInformation(MDRawSystemInfo*)
PUBLIC 5d322 0 (anonymous namespace)::MinidumpWriter::WriteFile(MDLocationDescriptor*, char const*)
PUBLIC 5d562 0 (anonymous namespace)::MinidumpWriter::WriteOSInformation(MDRawSystemInfo*)
PUBLIC 5d75e 0 (anonymous namespace)::MinidumpWriter::WriteProcFile(MDLocationDescriptor*, int, char const*)
PUBLIC 5d7ea 0 (anonymous namespace)::WriteMinidumpImpl(char const*, int, long, int, void const*, unsigned long, std::__cxx11::list<google_breakpad::MappingEntry, std::allocator<google_breakpad::MappingEntry> > const&, std::__cxx11::list<google_breakpad::AppMemory, std::allocator<google_breakpad::AppMemory> > const&)
PUBLIC 5d993 0 google_breakpad::WriteMinidump(char const*, int, void const*, unsigned long)
PUBLIC 5da46 0 google_breakpad::WriteMinidump(int, int, void const*, unsigned long)
PUBLIC 5daf6 0 google_breakpad::WriteMinidump(char const*, int, int)
PUBLIC 5dc64 0 google_breakpad::WriteMinidump(char const*, int, void const*, unsigned long, std::__cxx11::list<google_breakpad::MappingEntry, std::allocator<google_breakpad::MappingEntry> > const&, std::__cxx11::list<google_breakpad::AppMemory, std::allocator<google_breakpad::AppMemory> > const&)
PUBLIC 5dcba 0 google_breakpad::WriteMinidump(int, int, void const*, unsigned long, std::__cxx11::list<google_breakpad::MappingEntry, std::allocator<google_breakpad::MappingEntry> > const&, std::__cxx11::list<google_breakpad::AppMemory, std::allocator<google_breakpad::AppMemory> > const&)
PUBLIC 5dd0d 0 google_breakpad::WriteMinidump(char const*, long, int, void const*, unsigned long, std::__cxx11::list<google_breakpad::MappingEntry, std::allocator<google_breakpad::MappingEntry> > const&, std::__cxx11::list<google_breakpad::AppMemory, std::allocator<google_breakpad::AppMemory> > const&)
PUBLIC 5dd5e 0 google_breakpad::WriteMinidump(int, long, int, void const*, unsigned long, std::__cxx11::list<google_breakpad::MappingEntry, std::allocator<google_breakpad::MappingEntry> > const&, std::__cxx11::list<google_breakpad::AppMemory, std::allocator<google_breakpad::AppMemory> > const&)
PUBLIC 5ddac 0 google_breakpad::WriteMinidump(char const*, std::__cxx11::list<google_breakpad::MappingEntry, std::allocator<google_breakpad::MappingEntry> > const&, std::__cxx11::list<google_breakpad::AppMemory, std::allocator<google_breakpad::AppMemory> > const&, google_breakpad::LinuxDumper*)
PUBLIC 5de7a 0 google_breakpad::LinuxDumper::auxv()
PUBLIC 5de8e 0 google_breakpad::LinuxDumper::crash_address() const
PUBLIC 5dea0 0 google_breakpad::LinuxDumper::crash_signal() const
PUBLIC 5deb2 0 google_breakpad::MinidumpFileWriter::position() const
PUBLIC 5dec4 0 google_breakpad::UntypedMDRVA::UntypedMDRVA(google_breakpad::MinidumpFileWriter*)
PUBLIC 5df04 0 google_breakpad::UntypedMDRVA::position() const
PUBLIC 5df16 0 google_breakpad::UntypedMDRVA::location() const
PUBLIC 5df3a 0 google_breakpad::UntypedMDRVA::Copy(void const*, unsigned long)
PUBLIC 5df6c 0 google_breakpad::ProcCpuInfoReader::ProcCpuInfoReader(int)
PUBLIC 5df9e 0 google_breakpad::ProcCpuInfoReader::GetNextField(char const**)
PUBLIC 5e128 0 google_breakpad::ProcCpuInfoReader::GetValueAndLen(unsigned long*)
PUBLIC 5e186 0 google_breakpad::wasteful_vector<MDMemoryDescriptor>::~wasteful_vector()
PUBLIC 5e1a2 0 google_breakpad::wasteful_vector<char>::~wasteful_vector()
PUBLIC 5e1be 0 google_breakpad::PageStdAllocator<MDMemoryDescriptor>::~PageStdAllocator()
PUBLIC 5e1da 0 google_breakpad::wasteful_vector<MDMemoryDescriptor>::wasteful_vector(google_breakpad::PageAllocator*, unsigned int)
PUBLIC 5e256 0 std::vector<MDMemoryDescriptor, google_breakpad::PageStdAllocator<MDMemoryDescriptor> >::~vector()
PUBLIC 5e29c 0 google_breakpad::TypedMDRVA<MDRawDirectory>::TypedMDRVA(google_breakpad::MinidumpFileWriter*)
PUBLIC 5e2ee 0 google_breakpad::TypedMDRVA<MDRawDirectory>::~TypedMDRVA()
PUBLIC 5e316 0 google_breakpad::TypedMDRVA<MDRawHeader>::TypedMDRVA(google_breakpad::MinidumpFileWriter*)
PUBLIC 5e36c 0 google_breakpad::TypedMDRVA<MDRawHeader>::~TypedMDRVA()
PUBLIC 5e394 0 google_breakpad::TypedMDRVA<MDRawHeader>::Allocate()
PUBLIC 5e3c4 0 google_breakpad::TypedMDRVA<MDRawDirectory>::AllocateArray(unsigned long)
PUBLIC 5e424 0 google_breakpad::TypedMDRVA<MDRawHeader>::get()
PUBLIC 5e436 0 google_breakpad::TypedMDRVA<MDRawDirectory>::CopyIndex(unsigned int, MDRawDirectory*)
PUBLIC 5e4b2 0 std::vector<MDMemoryDescriptor, google_breakpad::PageStdAllocator<MDMemoryDescriptor> >::push_back(MDMemoryDescriptor const&)
PUBLIC 5e51e 0 google_breakpad::TypedMDRVA<unsigned int>::TypedMDRVA(google_breakpad::MinidumpFileWriter*)
PUBLIC 5e55a 0 google_breakpad::TypedMDRVA<unsigned int>::~TypedMDRVA()
PUBLIC 5e582 0 google_breakpad::TypedMDRVA<unsigned int>::AllocateObjectAndArray(unsigned long, unsigned long)
PUBLIC 5e5f4 0 google_breakpad::TypedMDRVA<unsigned int>::get()
PUBLIC 5e606 0 google_breakpad::TypedMDRVA<MDRawContextAMD64>::TypedMDRVA(google_breakpad::MinidumpFileWriter*)
PUBLIC 5e652 0 google_breakpad::TypedMDRVA<MDRawContextAMD64>::~TypedMDRVA()
PUBLIC 5e67c 0 google_breakpad::TypedMDRVA<MDRawContextAMD64>::Allocate()
PUBLIC 5e6b0 0 google_breakpad::TypedMDRVA<MDRawContextAMD64>::get()
PUBLIC 5e6c2 0 google_breakpad::TypedMDRVA<unsigned int>::CopyIndexAfterObject(unsigned int, void const*, unsigned long)
PUBLIC 5e746 0 std::__cxx11::list<google_breakpad::AppMemory, std::allocator<google_breakpad::AppMemory> >::begin() const
PUBLIC 5e76e 0 std::__cxx11::list<google_breakpad::AppMemory, std::allocator<google_breakpad::AppMemory> >::end() const
PUBLIC 5e794 0 std::_List_const_iterator<google_breakpad::AppMemory>::operator!=(std::_List_const_iterator<google_breakpad::AppMemory> const&) const
PUBLIC 5e7b6 0 std::_List_const_iterator<google_breakpad::AppMemory>::operator++()
PUBLIC 5e7d6 0 std::_List_const_iterator<google_breakpad::AppMemory>::operator->() const
PUBLIC 5e7f8 0 std::__cxx11::list<google_breakpad::MappingEntry, std::allocator<google_breakpad::MappingEntry> >::size() const
PUBLIC 5e812 0 google_breakpad::TypedMDRVA<unsigned int>::Allocate()
PUBLIC 5e842 0 std::vector<unsigned char, google_breakpad::PageStdAllocator<unsigned char> >::empty() const
PUBLIC 5e884 0 std::vector<MDMemoryDescriptor, google_breakpad::PageStdAllocator<MDMemoryDescriptor> >::size() const
PUBLIC 5e8ac 0 std::vector<MDMemoryDescriptor, google_breakpad::PageStdAllocator<MDMemoryDescriptor> >::operator[](unsigned long)
PUBLIC 5e8ce 0 google_breakpad::TypedMDRVA<MDRawExceptionStream>::TypedMDRVA(google_breakpad::MinidumpFileWriter*)
PUBLIC 5e91a 0 google_breakpad::TypedMDRVA<MDRawExceptionStream>::~TypedMDRVA()
PUBLIC 5e944 0 google_breakpad::TypedMDRVA<MDRawExceptionStream>::Allocate()
PUBLIC 5e978 0 google_breakpad::TypedMDRVA<MDRawExceptionStream>::get()
PUBLIC 5e98a 0 google_breakpad::TypedMDRVA<MDRawSystemInfo>::TypedMDRVA(google_breakpad::MinidumpFileWriter*)
PUBLIC 5e9d4 0 google_breakpad::TypedMDRVA<MDRawSystemInfo>::~TypedMDRVA()
PUBLIC 5e9fc 0 google_breakpad::TypedMDRVA<MDRawSystemInfo>::Allocate()
PUBLIC 5ea2c 0 google_breakpad::TypedMDRVA<MDRawSystemInfo>::get()
PUBLIC 5ea3e 0 std::vector<unsigned long, google_breakpad::PageStdAllocator<unsigned long> >::operator[](unsigned long) const
PUBLIC 5ea60 0 google_breakpad::TypedMDRVA<MDRawLinkMap64>::TypedMDRVA(google_breakpad::MinidumpFileWriter*)
PUBLIC 5eab4 0 google_breakpad::TypedMDRVA<MDRawLinkMap64>::~TypedMDRVA()
PUBLIC 5eadc 0 google_breakpad::TypedMDRVA<MDRawLinkMap64>::AllocateArray(unsigned long)
PUBLIC 5eb3c 0 google_breakpad::TypedMDRVA<MDRawLinkMap64>::CopyIndex(unsigned int, MDRawLinkMap64*)
PUBLIC 5ebb8 0 google_breakpad::TypedMDRVA<MDRawDebug64>::TypedMDRVA(google_breakpad::MinidumpFileWriter*)
PUBLIC 5ec2e 0 google_breakpad::TypedMDRVA<MDRawDebug64>::~TypedMDRVA()
PUBLIC 5ec56 0 google_breakpad::TypedMDRVA<MDRawDebug64>::AllocateObjectAndArray(unsigned long, unsigned long)
PUBLIC 5ecc8 0 google_breakpad::TypedMDRVA<MDRawDebug64>::get()
PUBLIC 5ecda 0 google_breakpad::PageStdAllocator<char>::~PageStdAllocator()
PUBLIC 5ecf6 0 google_breakpad::wasteful_vector<char>::wasteful_vector(google_breakpad::PageAllocator*, unsigned int)
PUBLIC 5ed72 0 std::vector<char, google_breakpad::PageStdAllocator<char> >::~vector()
PUBLIC 5edb8 0 std::vector<char, google_breakpad::PageStdAllocator<char> >::resize(unsigned long)
PUBLIC 5ee42 0 std::vector<char, google_breakpad::PageStdAllocator<char> >::operator[](unsigned long)
PUBLIC 5ee60 0 google_breakpad::TypedMDRVA<MDRawDebug64>::CopyIndexAfterObject(unsigned int, void const*, unsigned long)
PUBLIC 5eee4 0 google_breakpad::PageStdAllocator<MDMemoryDescriptor>::PageStdAllocator(google_breakpad::PageAllocator&)
PUBLIC 5ef26 0 std::allocator<MDMemoryDescriptor>::~allocator()
PUBLIC 5ef42 0 std::vector<MDMemoryDescriptor, google_breakpad::PageStdAllocator<MDMemoryDescriptor> >::vector(google_breakpad::PageStdAllocator<MDMemoryDescriptor> const&)
PUBLIC 5ef68 0 std::vector<MDMemoryDescriptor, google_breakpad::PageStdAllocator<MDMemoryDescriptor> >::reserve(unsigned long)
PUBLIC 5f0ae 0 std::_Vector_base<MDMemoryDescriptor, google_breakpad::PageStdAllocator<MDMemoryDescriptor> >::_Vector_impl::~_Vector_impl()
PUBLIC 5f0ca 0 std::_Vector_base<MDMemoryDescriptor, google_breakpad::PageStdAllocator<MDMemoryDescriptor> >::~_Vector_base()
PUBLIC 5f11c 0 std::_Vector_base<MDMemoryDescriptor, google_breakpad::PageStdAllocator<MDMemoryDescriptor> >::_M_get_Tp_allocator()
PUBLIC 5f12a 0 void std::_Destroy<MDMemoryDescriptor*, google_breakpad::PageStdAllocator<MDMemoryDescriptor> >(MDMemoryDescriptor*, MDMemoryDescriptor*, google_breakpad::PageStdAllocator<MDMemoryDescriptor>&)
PUBLIC 5f170 0 google_breakpad::TypedMDRVA<MDRawDirectory>::Flush()
PUBLIC 5f1a4 0 google_breakpad::TypedMDRVA<MDRawHeader>::Flush()
PUBLIC 5f1d8 0 google_breakpad::minidump_size<MDRawHeader>::size()
PUBLIC 5f1e3 0 google_breakpad::minidump_size<MDRawDirectory>::size()
PUBLIC 5f1ee 0 MDMemoryDescriptor const& std::forward<MDMemoryDescriptor const&>(std::remove_reference<MDMemoryDescriptor const&>::type&)
PUBLIC 5f1fc 0 decltype (_S_construct({parm#1}, {parm#2}, (forward<MDMemoryDescriptor const&>)({parm#3}))) std::allocator_traits<google_breakpad::PageStdAllocator<MDMemoryDescriptor> >::construct<MDMemoryDescriptor, MDMemoryDescriptor const&>(google_breakpad::PageStdAllocator<MDMemoryDescriptor>&, MDMemoryDescriptor*, MDMemoryDescriptor const&)
PUBLIC 5f236 0 void std::vector<MDMemoryDescriptor, google_breakpad::PageStdAllocator<MDMemoryDescriptor> >::_M_emplace_back_aux<MDMemoryDescriptor const&>(MDMemoryDescriptor const&)
PUBLIC 5f424 0 google_breakpad::TypedMDRVA<unsigned int>::Flush()
PUBLIC 5f458 0 google_breakpad::minidump_size<unsigned int>::size()
PUBLIC 5f464 0 google_breakpad::TypedMDRVA<MDRawContextAMD64>::Flush()
PUBLIC 5f498 0 google_breakpad::minidump_size<MDRawContextAMD64>::size()
PUBLIC 5f4a4 0 std::_List_const_iterator<google_breakpad::AppMemory>::_List_const_iterator(std::__detail::_List_node_base const*)
PUBLIC 5f4be 0 google_breakpad::AppMemory const* std::__addressof<google_breakpad::AppMemory const>(google_breakpad::AppMemory const&)
PUBLIC 5f4cc 0 std::__cxx11::_List_base<google_breakpad::MappingEntry, std::allocator<google_breakpad::MappingEntry> >::_M_node_count() const
PUBLIC 5f4de 0 std::vector<unsigned char, google_breakpad::PageStdAllocator<unsigned char> >::begin() const
PUBLIC 5f510 0 std::vector<unsigned char, google_breakpad::PageStdAllocator<unsigned char> >::end() const
PUBLIC 5f541 0 bool __gnu_cxx::operator==<unsigned char const*, std::vector<unsigned char, google_breakpad::PageStdAllocator<unsigned char> > >(__gnu_cxx::__normal_iterator<unsigned char const*, std::vector<unsigned char, google_breakpad::PageStdAllocator<unsigned char> > > const&, __gnu_cxx::__normal_iterator<unsigned char const*, std::vector<unsigned char, google_breakpad::PageStdAllocator<unsigned char> > > const&)
PUBLIC 5f57e 0 google_breakpad::TypedMDRVA<MDRawExceptionStream>::Flush()
PUBLIC 5f5b2 0 google_breakpad::minidump_size<MDRawExceptionStream>::size()
PUBLIC 5f5be 0 google_breakpad::TypedMDRVA<MDRawSystemInfo>::Flush()
PUBLIC 5f5f2 0 google_breakpad::minidump_size<MDRawSystemInfo>::size()
PUBLIC 5f5fe 0 google_breakpad::TypedMDRVA<MDRawLinkMap64>::Flush()
PUBLIC 5f632 0 google_breakpad::minidump_size<MDRawLinkMap64>::size()
PUBLIC 5f63e 0 google_breakpad::TypedMDRVA<MDRawDebug64>::Flush()
PUBLIC 5f672 0 google_breakpad::minidump_size<MDRawDebug64>::size()
PUBLIC 5f67e 0 google_breakpad::PageStdAllocator<char>::PageStdAllocator(google_breakpad::PageAllocator&)
PUBLIC 5f6c0 0 std::vector<char, google_breakpad::PageStdAllocator<char> >::vector(google_breakpad::PageStdAllocator<char> const&)
PUBLIC 5f6e6 0 std::vector<char, google_breakpad::PageStdAllocator<char> >::reserve(unsigned long)
PUBLIC 5f81e 0 std::_Vector_base<char, google_breakpad::PageStdAllocator<char> >::_Vector_impl::~_Vector_impl()
PUBLIC 5f83a 0 std::_Vector_base<char, google_breakpad::PageStdAllocator<char> >::~_Vector_base()
PUBLIC 5f888 0 std::_Vector_base<char, google_breakpad::PageStdAllocator<char> >::_M_get_Tp_allocator()
PUBLIC 5f896 0 void std::_Destroy<char*, google_breakpad::PageStdAllocator<char> >(char*, char*, google_breakpad::PageStdAllocator<char>&)
PUBLIC 5f8dc 0 std::vector<char, google_breakpad::PageStdAllocator<char> >::size() const
PUBLIC 5f900 0 std::vector<char, google_breakpad::PageStdAllocator<char> >::_M_default_append(unsigned long)
PUBLIC 5fafe 0 std::vector<char, google_breakpad::PageStdAllocator<char> >::_M_erase_at_end(char*)
PUBLIC 5fb44 0 std::allocator<MDMemoryDescriptor>::allocator()
PUBLIC 5fb60 0 __gnu_cxx::new_allocator<MDMemoryDescriptor>::~new_allocator()
PUBLIC 5fb6c 0 std::_Vector_base<MDMemoryDescriptor, google_breakpad::PageStdAllocator<MDMemoryDescriptor> >::_Vector_base(google_breakpad::PageStdAllocator<MDMemoryDescriptor> const&)
PUBLIC 5fb92 0 std::vector<MDMemoryDescriptor, google_breakpad::PageStdAllocator<MDMemoryDescriptor> >::max_size() const
PUBLIC 5fbb4 0 std::vector<MDMemoryDescriptor, google_breakpad::PageStdAllocator<MDMemoryDescriptor> >::capacity() const
PUBLIC 5fbdb 0 std::move_iterator<MDMemoryDescriptor*> std::__make_move_if_noexcept_iterator<MDMemoryDescriptor*, std::move_iterator<MDMemoryDescriptor*> >(MDMemoryDescriptor*)
PUBLIC 5fc00 0 MDMemoryDescriptor* std::vector<MDMemoryDescriptor, google_breakpad::PageStdAllocator<MDMemoryDescriptor> >::_M_allocate_and_copy<std::move_iterator<MDMemoryDescriptor*> >(unsigned long, std::move_iterator<MDMemoryDescriptor*>, std::move_iterator<MDMemoryDescriptor*>)
PUBLIC 5fc98 0 std::_Vector_base<MDMemoryDescriptor, google_breakpad::PageStdAllocator<MDMemoryDescriptor> >::_M_deallocate(MDMemoryDescriptor*, unsigned long)
PUBLIC 5fccd 0 MDMemoryDescriptor* std::__addressof<MDMemoryDescriptor>(MDMemoryDescriptor&)
PUBLIC 5fcdb 0 void std::allocator_traits<google_breakpad::PageStdAllocator<MDMemoryDescriptor> >::destroy<MDMemoryDescriptor>(google_breakpad::PageStdAllocator<MDMemoryDescriptor>&, MDMemoryDescriptor*)
PUBLIC 5fd01 0 std::enable_if<std::__and_<std::allocator_traits<google_breakpad::PageStdAllocator<MDMemoryDescriptor> >::__construct_helper<MDMemoryDescriptor, MDMemoryDescriptor const&>::type>::value, void>::type std::allocator_traits<google_breakpad::PageStdAllocator<MDMemoryDescriptor> >::_S_construct<MDMemoryDescriptor, MDMemoryDescriptor const&>(google_breakpad::PageStdAllocator<MDMemoryDescriptor>&, MDMemoryDescriptor*, MDMemoryDescriptor const&)
PUBLIC 5fd3a 0 std::vector<MDMemoryDescriptor, google_breakpad::PageStdAllocator<MDMemoryDescriptor> >::_M_check_len(unsigned long, char const*) const
PUBLIC 5fe04 0 std::_Vector_base<MDMemoryDescriptor, google_breakpad::PageStdAllocator<MDMemoryDescriptor> >::_M_allocate(unsigned long)
PUBLIC 5fe37 0 MDMemoryDescriptor* std::__uninitialized_move_if_noexcept_a<MDMemoryDescriptor*, MDMemoryDescriptor*, google_breakpad::PageStdAllocator<MDMemoryDescriptor> >(MDMemoryDescriptor*, MDMemoryDescriptor*, MDMemoryDescriptor*, google_breakpad::PageStdAllocator<MDMemoryDescriptor>&)
PUBLIC 5fe8c 0 std::_Vector_base<char, google_breakpad::PageStdAllocator<char> >::_Vector_base(google_breakpad::PageStdAllocator<char> const&)
PUBLIC 5feb2 0 std::vector<char, google_breakpad::PageStdAllocator<char> >::max_size() const
PUBLIC 5fed4 0 std::vector<char, google_breakpad::PageStdAllocator<char> >::capacity() const
PUBLIC 5fef7 0 std::move_iterator<char*> std::__make_move_if_noexcept_iterator<char*, std::move_iterator<char*> >(char*)
PUBLIC 5ff1c 0 char* std::vector<char, google_breakpad::PageStdAllocator<char> >::_M_allocate_and_copy<std::move_iterator<char*> >(unsigned long, std::move_iterator<char*>, std::move_iterator<char*>)
PUBLIC 5ffb4 0 std::_Vector_base<char, google_breakpad::PageStdAllocator<char> >::_M_deallocate(char*, unsigned long)
PUBLIC 5ffe9 0 char* std::__addressof<char>(char&)
PUBLIC 5fff7 0 void std::allocator_traits<google_breakpad::PageStdAllocator<char> >::destroy<char>(google_breakpad::PageStdAllocator<char>&, char*)
PUBLIC 6001d 0 char* std::__uninitialized_default_n_a<char*, unsigned long, google_breakpad::PageStdAllocator<char> >(char*, unsigned long, google_breakpad::PageStdAllocator<char>&)
PUBLIC 600b0 0 std::vector<char, google_breakpad::PageStdAllocator<char> >::_M_check_len(unsigned long, char const*) const
PUBLIC 6017a 0 std::_Vector_base<char, google_breakpad::PageStdAllocator<char> >::_M_allocate(unsigned long)
PUBLIC 601ad 0 char* std::__uninitialized_move_if_noexcept_a<char*, char*, google_breakpad::PageStdAllocator<char> >(char*, char*, char*, google_breakpad::PageStdAllocator<char>&)
PUBLIC 60202 0 __gnu_cxx::new_allocator<MDMemoryDescriptor>::new_allocator()
PUBLIC 6020e 0 google_breakpad::PageStdAllocator<MDMemoryDescriptor>::PageStdAllocator(google_breakpad::PageStdAllocator<MDMemoryDescriptor> const&)
PUBLIC 60262 0 std::_Vector_base<MDMemoryDescriptor, google_breakpad::PageStdAllocator<MDMemoryDescriptor> >::_Vector_impl::_Vector_impl(google_breakpad::PageStdAllocator<MDMemoryDescriptor> const&)
PUBLIC 602ac 0 std::allocator_traits<google_breakpad::PageStdAllocator<MDMemoryDescriptor> >::max_size(google_breakpad::PageStdAllocator<MDMemoryDescriptor> const&)
PUBLIC 602cc 0 std::_Vector_base<MDMemoryDescriptor, google_breakpad::PageStdAllocator<MDMemoryDescriptor> >::_M_get_Tp_allocator() const
PUBLIC 602da 0 std::move_iterator<MDMemoryDescriptor*>::move_iterator(MDMemoryDescriptor*)
PUBLIC 602f4 0 MDMemoryDescriptor* std::__uninitialized_copy_a<std::move_iterator<MDMemoryDescriptor*>, MDMemoryDescriptor*, google_breakpad::PageStdAllocator<MDMemoryDescriptor> >(std::move_iterator<MDMemoryDescriptor*>, std::move_iterator<MDMemoryDescriptor*>, MDMemoryDescriptor*, google_breakpad::PageStdAllocator<MDMemoryDescriptor>&)
PUBLIC 603b3 0 std::allocator_traits<google_breakpad::PageStdAllocator<MDMemoryDescriptor> >::deallocate(google_breakpad::PageStdAllocator<MDMemoryDescriptor>&, MDMemoryDescriptor*, unsigned long)
PUBLIC 603e1 0 std::enable_if<std::__and_<std::allocator_traits<google_breakpad::PageStdAllocator<MDMemoryDescriptor> >::__destroy_helper<MDMemoryDescriptor>::type>::value, void>::type std::allocator_traits<google_breakpad::PageStdAllocator<MDMemoryDescriptor> >::_S_destroy<MDMemoryDescriptor>(google_breakpad::PageStdAllocator<MDMemoryDescriptor>&, MDMemoryDescriptor*)
PUBLIC 60408 0 _ZN9__gnu_cxx13new_allocatorI18MDMemoryDescriptorE9constructIS1_IRKS1_EEEvPT_DpOT0_
PUBLIC 6045b 0 std::allocator_traits<google_breakpad::PageStdAllocator<MDMemoryDescriptor> >::allocate(google_breakpad::PageStdAllocator<MDMemoryDescriptor>&, unsigned long)
PUBLIC 60486 0 google_breakpad::PageStdAllocator<char>::PageStdAllocator(google_breakpad::PageStdAllocator<char> const&)
PUBLIC 604da 0 std::_Vector_base<char, google_breakpad::PageStdAllocator<char> >::_Vector_impl::_Vector_impl(google_breakpad::PageStdAllocator<char> const&)
PUBLIC 60524 0 std::allocator_traits<google_breakpad::PageStdAllocator<char> >::max_size(google_breakpad::PageStdAllocator<char> const&)
PUBLIC 60544 0 std::_Vector_base<char, google_breakpad::PageStdAllocator<char> >::_M_get_Tp_allocator() const
PUBLIC 60552 0 std::move_iterator<char*>::move_iterator(char*)
PUBLIC 6056c 0 char* std::__uninitialized_copy_a<std::move_iterator<char*>, char*, google_breakpad::PageStdAllocator<char> >(std::move_iterator<char*>, std::move_iterator<char*>, char*, google_breakpad::PageStdAllocator<char>&)
PUBLIC 6062b 0 std::allocator_traits<google_breakpad::PageStdAllocator<char> >::deallocate(google_breakpad::PageStdAllocator<char>&, char*, unsigned long)
PUBLIC 60659 0 std::enable_if<std::__and_<std::allocator_traits<google_breakpad::PageStdAllocator<char> >::__destroy_helper<char>::type>::value, void>::type std::allocator_traits<google_breakpad::PageStdAllocator<char> >::_S_destroy<char>(google_breakpad::PageStdAllocator<char>&, char*)
PUBLIC 6067f 0 decltype (_S_construct({parm#1}, {parm#2})) std::allocator_traits<google_breakpad::PageStdAllocator<char> >::construct<char>(google_breakpad::PageStdAllocator<char>&, char*)
PUBLIC 606a5 0 std::allocator_traits<google_breakpad::PageStdAllocator<char> >::allocate(google_breakpad::PageStdAllocator<char>&, unsigned long)
PUBLIC 606d0 0 std::allocator<MDMemoryDescriptor>::allocator(std::allocator<MDMemoryDescriptor> const&)
PUBLIC 606f6 0 unsigned long std::allocator_traits<google_breakpad::PageStdAllocator<MDMemoryDescriptor> >::_S_max_size<google_breakpad::PageStdAllocator<MDMemoryDescriptor> const, void>(google_breakpad::PageStdAllocator<MDMemoryDescriptor> const&, int)
PUBLIC 60713 0 bool std::operator!=<MDMemoryDescriptor*>(std::move_iterator<MDMemoryDescriptor*> const&, std::move_iterator<MDMemoryDescriptor*> const&)
PUBLIC 6073c 0 std::move_iterator<MDMemoryDescriptor*>::operator++()
PUBLIC 6075c 0 std::move_iterator<MDMemoryDescriptor*>::operator*() const
PUBLIC 6076d 0 MDMemoryDescriptor&& std::forward<MDMemoryDescriptor>(std::remove_reference<MDMemoryDescriptor>::type&)
PUBLIC 6077b 0 decltype (_S_construct({parm#1}, {parm#2}, (forward<MDMemoryDescriptor>)({parm#3}))) std::allocator_traits<google_breakpad::PageStdAllocator<MDMemoryDescriptor> >::construct<MDMemoryDescriptor, MDMemoryDescriptor>(google_breakpad::PageStdAllocator<MDMemoryDescriptor>&, MDMemoryDescriptor*, MDMemoryDescriptor&&)
PUBLIC 607b4 0 google_breakpad::PageStdAllocator<MDMemoryDescriptor>::deallocate(MDMemoryDescriptor*, unsigned long)
PUBLIC 607c8 0 void __gnu_cxx::new_allocator<MDMemoryDescriptor>::destroy<MDMemoryDescriptor>(MDMemoryDescriptor*)
PUBLIC 607d8 0 google_breakpad::PageStdAllocator<MDMemoryDescriptor>::allocate(unsigned long, void const*)
PUBLIC 60828 0 unsigned long std::allocator_traits<google_breakpad::PageStdAllocator<char> >::_S_max_size<google_breakpad::PageStdAllocator<char> const, void>(google_breakpad::PageStdAllocator<char> const&, int)
PUBLIC 60845 0 bool std::operator!=<char*>(std::move_iterator<char*> const&, std::move_iterator<char*> const&)
PUBLIC 6086e 0 std::move_iterator<char*>::operator++()
PUBLIC 6088e 0 std::move_iterator<char*>::operator*() const
PUBLIC 6089f 0 char&& std::forward<char>(std::remove_reference<char>::type&)
PUBLIC 608ad 0 decltype (_S_construct({parm#1}, {parm#2}, (forward<char>)({parm#3}))) std::allocator_traits<google_breakpad::PageStdAllocator<char> >::construct<char, char>(google_breakpad::PageStdAllocator<char>&, char*, char&&)
PUBLIC 608e6 0 google_breakpad::PageStdAllocator<char>::deallocate(char*, unsigned long)
PUBLIC 608fa 0 void __gnu_cxx::new_allocator<char>::destroy<char>(char*)
PUBLIC 60909 0 std::enable_if<std::__and_<std::allocator_traits<google_breakpad::PageStdAllocator<char> >::__construct_helper<char>::type>::value, void>::type std::allocator_traits<google_breakpad::PageStdAllocator<char> >::_S_construct<char>(google_breakpad::PageStdAllocator<char>&, char*)
PUBLIC 60930 0 google_breakpad::PageStdAllocator<char>::allocate(unsigned long, void const*)
PUBLIC 6097c 0 __gnu_cxx::new_allocator<MDMemoryDescriptor>::new_allocator(__gnu_cxx::new_allocator<MDMemoryDescriptor> const&)
PUBLIC 6098c 0 __gnu_cxx::new_allocator<MDMemoryDescriptor>::max_size() const
PUBLIC 609a0 0 bool std::operator==<MDMemoryDescriptor*>(std::move_iterator<MDMemoryDescriptor*> const&, std::move_iterator<MDMemoryDescriptor*> const&)
PUBLIC 609d9 0 _ZNSt16allocator_traitsIN15google_breakpad16PageStdAllocatorI18MDMemoryDescriptorEEE12_S_constructIS2_IS2_EEENSt9enable_ifIXsrSt6__and_IINS4_18__construct_helperIT_IDpT0_EE4typeEEE5valueEvE4typeERS3_PS9_DpOSA_
PUBLIC 60a12 0 __gnu_cxx::new_allocator<char>::max_size() const
PUBLIC 60a23 0 bool std::operator==<char*>(std::move_iterator<char*> const&, std::move_iterator<char*> const&)
PUBLIC 60a5c 0 std::enable_if<std::__and_<std::allocator_traits<google_breakpad::PageStdAllocator<char> >::__construct_helper<char, char>::type>::value, void>::type std::allocator_traits<google_breakpad::PageStdAllocator<char> >::_S_construct<char, char>(google_breakpad::PageStdAllocator<char>&, char*, char&&)
PUBLIC 60a96 0 void __gnu_cxx::new_allocator<char>::construct<char>(char*)
PUBLIC 60ac2 0 std::move_iterator<MDMemoryDescriptor*>::base() const
PUBLIC 60ad4 0 _ZN9__gnu_cxx13new_allocatorI18MDMemoryDescriptorE9constructIS1_IS1_EEEvPT_DpOT0_
PUBLIC 60b28 0 std::move_iterator<char*>::base() const
PUBLIC 60b3a 0 void __gnu_cxx::new_allocator<char>::construct<char, char>(char*, char&&)
PUBLIC 60b7e 0 sys_close
PUBLIC 60bc7 0 sys_lseek
PUBLIC 60c1e 0 sys_open
PUBLIC 60c75 0 sys_write
PUBLIC 60ccc 0 google_breakpad::MinidumpFileWriter::MinidumpFileWriter()
PUBLIC 60d00 0 google_breakpad::MinidumpFileWriter::~MinidumpFileWriter()
PUBLIC 60d28 0 google_breakpad::MinidumpFileWriter::Open(char const*)
PUBLIC 60d8e 0 google_breakpad::MinidumpFileWriter::SetFile(int)
PUBLIC 60ddc 0 google_breakpad::MinidumpFileWriter::Close()
PUBLIC 60e46 0 google_breakpad::MinidumpFileWriter::CopyStringToMDString(wchar_t const*, unsigned int, google_breakpad::TypedMDRVA<MDString>*)
PUBLIC 60efa 0 google_breakpad::MinidumpFileWriter::CopyStringToMDString(char const*, unsigned int, google_breakpad::TypedMDRVA<MDString>*)
PUBLIC 60fb4 0 google_breakpad::MinidumpFileWriter::WriteString(wchar_t const*, unsigned int, MDLocationDescriptor*)
PUBLIC 60fe4 0 google_breakpad::MinidumpFileWriter::WriteString(char const*, unsigned int, MDLocationDescriptor*)
PUBLIC 61014 0 google_breakpad::MinidumpFileWriter::WriteMemory(void const*, unsigned long, MDMemoryDescriptor*)
PUBLIC 61108 0 google_breakpad::MinidumpFileWriter::Allocate(unsigned long)
PUBLIC 61220 0 google_breakpad::MinidumpFileWriter::Copy(unsigned int, void const*, long)
PUBLIC 61328 0 google_breakpad::UntypedMDRVA::Allocate(unsigned long)
PUBLIC 613a2 0 google_breakpad::UntypedMDRVA::Copy(unsigned int, void const*, unsigned long)
PUBLIC 61464 0 google_breakpad::UntypedMDRVA::size() const
PUBLIC 61476 0 google_breakpad::minidump_size<MDString>::size()
PUBLIC 61482 0 google_breakpad::TypedMDRVA<MDString>::get()
PUBLIC 61494 0 google_breakpad::TypedMDRVA<MDString>::CopyIndexAfterObject(unsigned int, void const*, unsigned long)
PUBLIC 61518 0 bool google_breakpad::MinidumpFileWriter::WriteStringCore<wchar_t>(wchar_t const*, unsigned int, MDLocationDescriptor*)
PUBLIC 616a0 0 bool google_breakpad::MinidumpFileWriter::WriteStringCore<char>(char const*, unsigned int, MDLocationDescriptor*)
PUBLIC 61820 0 google_breakpad::TypedMDRVA<MDString>::TypedMDRVA(google_breakpad::MinidumpFileWriter*)
PUBLIC 61866 0 google_breakpad::TypedMDRVA<MDString>::~TypedMDRVA()
PUBLIC 6188e 0 google_breakpad::TypedMDRVA<MDString>::AllocateObjectAndArray(unsigned long, unsigned long)
PUBLIC 61900 0 google_breakpad::TypedMDRVA<MDString>::Flush()
PUBLIC 61934 0 google_breakpad::UTF8ToUTF16(char const*, std::vector<unsigned short, std::allocator<unsigned short> >*)
PUBLIC 61a58 0 google_breakpad::UTF8ToUTF16Char(char const*, int, unsigned short*)
PUBLIC 61b12 0 google_breakpad::UTF32ToUTF16(wchar_t const*, std::vector<unsigned short, std::allocator<unsigned short> >*)
PUBLIC 61c3a 0 google_breakpad::UTF32ToUTF16Char(wchar_t, unsigned short*)
PUBLIC 61ccd 0 google_breakpad::Swap(unsigned short)
PUBLIC 61ceb 0 google_breakpad::UTF16ToUTF8[abi:cxx11](std::vector<unsigned short, std::allocator<unsigned short> > const&, bool)
PUBLIC 61fc4 0 std::vector<unsigned short, std::allocator<unsigned short> >::clear()
PUBLIC 61fea 0 std::vector<unsigned short, std::allocator<unsigned short> >::begin()
PUBLIC 62010 0 __gnu_cxx::__normal_iterator<unsigned short const*, std::vector<unsigned short, std::allocator<unsigned short> > >::__normal_iterator<unsigned short*>(__gnu_cxx::__normal_iterator<unsigned short*, __gnu_cxx::__enable_if<std::__are_same<unsigned short*, unsigned short*>::__value, std::vector<unsigned short, std::allocator<unsigned short> > >::__type> const&)
PUBLIC 6203a 0 std::vector<unsigned short, std::allocator<unsigned short> >::insert(__gnu_cxx::__normal_iterator<unsigned short const*, std::vector<unsigned short, std::allocator<unsigned short> > >, unsigned long, unsigned short const&)
PUBLIC 620d8 0 std::vector<unsigned short, std::allocator<unsigned short> >::operator[](unsigned long)
PUBLIC 620f8 0 std::vector<unsigned short, std::allocator<unsigned short> >::capacity() const
PUBLIC 6211e 0 std::vector<unsigned short, std::allocator<unsigned short> >::resize(unsigned long)
PUBLIC 621aa 0 std::vector<unsigned short, std::allocator<unsigned short> >::operator[](unsigned long) const
PUBLIC 621ca 0 google_breakpad::scoped_array<unsigned short>::scoped_array(unsigned short*)
PUBLIC 621e4 0 google_breakpad::scoped_array<unsigned short>::~scoped_array()
PUBLIC 6220e 0 std::vector<unsigned short, std::allocator<unsigned short> >::size() const
PUBLIC 62234 0 google_breakpad::scoped_array<unsigned short>::reset(unsigned short*)
PUBLIC 6227a 0 google_breakpad::scoped_array<unsigned short>::get() const
PUBLIC 6228c 0 std::vector<unsigned short, std::allocator<unsigned short> >::begin() const
PUBLIC 622bc 0 std::vector<unsigned short, std::allocator<unsigned short> >::end() const
PUBLIC 622ed 0 bool __gnu_cxx::operator!=<unsigned short const*, std::vector<unsigned short, std::allocator<unsigned short> > >(__gnu_cxx::__normal_iterator<unsigned short const*, std::vector<unsigned short, std::allocator<unsigned short> > > const&, __gnu_cxx::__normal_iterator<unsigned short const*, std::vector<unsigned short, std::allocator<unsigned short> > > const&)
PUBLIC 6232a 0 __gnu_cxx::__normal_iterator<unsigned short const*, std::vector<unsigned short, std::allocator<unsigned short> > >::operator++()
PUBLIC 6234a 0 __gnu_cxx::__normal_iterator<unsigned short const*, std::vector<unsigned short, std::allocator<unsigned short> > >::operator*() const
PUBLIC 6235c 0 google_breakpad::scoped_array<unsigned char>::scoped_array(unsigned char*)
PUBLIC 62376 0 google_breakpad::scoped_array<unsigned char>::~scoped_array()
PUBLIC 623a0 0 google_breakpad::scoped_array<unsigned char>::get() const
PUBLIC 623b2 0 std::vector<unsigned short, std::allocator<unsigned short> >::_M_erase_at_end(unsigned short*)
PUBLIC 623f8 0 __gnu_cxx::__normal_iterator<unsigned short*, std::vector<unsigned short, std::allocator<unsigned short> > >::__normal_iterator(unsigned short* const&)
PUBLIC 62416 0 __gnu_cxx::__normal_iterator<unsigned short*, std::vector<unsigned short, std::allocator<unsigned short> > >::base() const
PUBLIC 62424 0 std::vector<unsigned short, std::allocator<unsigned short> >::cbegin() const
PUBLIC 62454 0 __gnu_cxx::__normal_iterator<unsigned short const*, std::vector<unsigned short, std::allocator<unsigned short> > >::difference_type __gnu_cxx::operator-<unsigned short const*, std::vector<unsigned short, std::allocator<unsigned short> > >(__gnu_cxx::__normal_iterator<unsigned short const*, std::vector<unsigned short, std::allocator<unsigned short> > > const&, __gnu_cxx::__normal_iterator<unsigned short const*, std::vector<unsigned short, std::allocator<unsigned short> > > const&)
PUBLIC 62496 0 std::vector<unsigned short, std::allocator<unsigned short> >::_M_fill_insert(__gnu_cxx::__normal_iterator<unsigned short*, std::vector<unsigned short, std::allocator<unsigned short> > >, unsigned long, unsigned short const&)
PUBLIC 62934 0 __gnu_cxx::__normal_iterator<unsigned short*, std::vector<unsigned short, std::allocator<unsigned short> > >::operator+(long) const
PUBLIC 62972 0 std::vector<unsigned short, std::allocator<unsigned short> >::_M_default_append(unsigned long)
PUBLIC 62b76 0 __gnu_cxx::__normal_iterator<unsigned short const*, std::vector<unsigned short, std::allocator<unsigned short> > >::__normal_iterator(unsigned short const* const&)
PUBLIC 62b94 0 __gnu_cxx::__normal_iterator<unsigned short const*, std::vector<unsigned short, std::allocator<unsigned short> > >::base() const
PUBLIC 62ba2 0 std::_Vector_base<unsigned short, std::allocator<unsigned short> >::_M_get_Tp_allocator()
PUBLIC 62bb0 0 void std::_Destroy<unsigned short*, unsigned short>(unsigned short*, unsigned short*, std::allocator<unsigned short>&)
PUBLIC 62bda 0 std::vector<unsigned short, std::allocator<unsigned short> >::end()
PUBLIC 62c03 0 __gnu_cxx::__normal_iterator<unsigned short*, std::vector<unsigned short, std::allocator<unsigned short> > >::difference_type __gnu_cxx::operator-<unsigned short*, std::vector<unsigned short, std::allocator<unsigned short> > >(__gnu_cxx::__normal_iterator<unsigned short*, std::vector<unsigned short, std::allocator<unsigned short> > > const&, __gnu_cxx::__normal_iterator<unsigned short*, std::vector<unsigned short, std::allocator<unsigned short> > > const&)
PUBLIC 62c45 0 unsigned short* std::__uninitialized_move_a<unsigned short*, unsigned short*, std::allocator<unsigned short> >(unsigned short*, unsigned short*, unsigned short*, std::allocator<unsigned short>&)
PUBLIC 62c99 0 unsigned short* std::move_backward<unsigned short*, unsigned short*>(unsigned short*, unsigned short*, unsigned short*)
PUBLIC 62ce5 0 void std::fill<unsigned short*, unsigned short>(unsigned short*, unsigned short*, unsigned short const&)
PUBLIC 62d32 0 unsigned short* std::__uninitialized_fill_n_a<unsigned short*, unsigned long, unsigned short, unsigned short>(unsigned short*, unsigned long, unsigned short const&, std::allocator<unsigned short>&)
PUBLIC 62d64 0 std::vector<unsigned short, std::allocator<unsigned short> >::_M_check_len(unsigned long, char const*) const
PUBLIC 62e2e 0 std::_Vector_base<unsigned short, std::allocator<unsigned short> >::_M_allocate(unsigned long)
PUBLIC 62e61 0 unsigned short* std::__uninitialized_move_if_noexcept_a<unsigned short*, unsigned short*, std::allocator<unsigned short> >(unsigned short*, unsigned short*, unsigned short*, std::allocator<unsigned short>&)
PUBLIC 62eb6 0 std::_Vector_base<unsigned short, std::allocator<unsigned short> >::_M_deallocate(unsigned short*, unsigned long)
PUBLIC 62eeb 0 unsigned short* std::__uninitialized_default_n_a<unsigned short*, unsigned long, unsigned short>(unsigned short*, unsigned long, std::allocator<unsigned short>&)
PUBLIC 62f14 0 void std::_Destroy<unsigned short*>(unsigned short*, unsigned short*)
PUBLIC 62f3a 0 std::move_iterator<unsigned short*> std::make_move_iterator<unsigned short*>(unsigned short*)
PUBLIC 62f5f 0 unsigned short* std::__uninitialized_copy_a<std::move_iterator<unsigned short*>, unsigned short*, unsigned short>(std::move_iterator<unsigned short*>, std::move_iterator<unsigned short*>, unsigned short*, std::allocator<unsigned short>&)
PUBLIC 62f90 0 std::_Miter_base<unsigned short*>::iterator_type std::__miter_base<unsigned short*>(unsigned short*)
PUBLIC 62faa 0 unsigned short* std::__copy_move_backward_a2<true, unsigned short*, unsigned short*>(unsigned short*, unsigned short*, unsigned short*)
PUBLIC 63002 0 std::_Niter_base<unsigned short*>::iterator_type std::__niter_base<unsigned short*>(unsigned short*)
PUBLIC 6301c 0 __gnu_cxx::__enable_if<std::__is_scalar<unsigned short>::__value, void>::__type std::__fill_a<unsigned short*, unsigned short>(unsigned short*, unsigned short*, unsigned short const&)
PUBLIC 63056 0 unsigned short* std::uninitialized_fill_n<unsigned short*, unsigned long, unsigned short>(unsigned short*, unsigned long, unsigned short const&)
PUBLIC 63088 0 std::vector<unsigned short, std::allocator<unsigned short> >::max_size() const
PUBLIC 630aa 0 std::allocator_traits<std::allocator<unsigned short> >::allocate(std::allocator<unsigned short>&, unsigned long)
PUBLIC 630d4 0 std::move_iterator<unsigned short*> std::__make_move_if_noexcept_iterator<unsigned short*, std::move_iterator<unsigned short*> >(unsigned short*)
PUBLIC 630f9 0 std::allocator_traits<std::allocator<unsigned short> >::deallocate(std::allocator<unsigned short>&, unsigned short*, unsigned long)
PUBLIC 63127 0 unsigned short* std::__uninitialized_default_n<unsigned short*, unsigned long>(unsigned short*, unsigned long)
PUBLIC 63150 0 void std::_Destroy_aux<true>::__destroy<unsigned short*>(unsigned short*, unsigned short*)
PUBLIC 63160 0 std::move_iterator<unsigned short*>::move_iterator(unsigned short*)
PUBLIC 6317a 0 unsigned short* std::uninitialized_copy<std::move_iterator<unsigned short*>, unsigned short*>(std::move_iterator<unsigned short*>, std::move_iterator<unsigned short*>, unsigned short*)
PUBLIC 631ab 0 std::_Iter_base<unsigned short*, false>::_S_base(unsigned short*)
PUBLIC 631b9 0 unsigned short* std::__copy_move_backward_a<true, unsigned short*, unsigned short*>(unsigned short*, unsigned short*, unsigned short*)
PUBLIC 631ea 0 unsigned short* std::__uninitialized_fill_n<true>::__uninit_fill_n<unsigned short*, unsigned long, unsigned short>(unsigned short*, unsigned long, unsigned short const&)
PUBLIC 63217 0 std::allocator_traits<std::allocator<unsigned short> >::max_size(std::allocator<unsigned short> const&)
PUBLIC 63232 0 std::_Vector_base<unsigned short, std::allocator<unsigned short> >::_M_get_Tp_allocator() const
PUBLIC 63240 0 __gnu_cxx::new_allocator<unsigned short>::allocate(unsigned long, void const*)
PUBLIC 63282 0 __gnu_cxx::new_allocator<unsigned short>::deallocate(unsigned short*, unsigned long)
PUBLIC 632a5 0 unsigned short* std::__uninitialized_default_n_1<true>::__uninit_default_n<unsigned short*, unsigned long>(unsigned short*, unsigned long)
PUBLIC 632d4 0 unsigned short* std::__uninitialized_copy<true>::__uninit_copy<std::move_iterator<unsigned short*>, unsigned short*>(std::move_iterator<unsigned short*>, std::move_iterator<unsigned short*>, unsigned short*)
PUBLIC 63301 0 unsigned short* std::__copy_move_backward<true, true, std::random_access_iterator_tag>::__copy_move_b<unsigned short>(unsigned short const*, unsigned short const*, unsigned short*)
PUBLIC 63372 0 unsigned short* std::fill_n<unsigned short*, unsigned long, unsigned short>(unsigned short*, unsigned long, unsigned short const&)
PUBLIC 633aa 0 __gnu_cxx::new_allocator<unsigned short>::max_size() const
PUBLIC 633be 0 unsigned short* std::copy<std::move_iterator<unsigned short*>, unsigned short*>(std::move_iterator<unsigned short*>, std::move_iterator<unsigned short*>, unsigned short*)
PUBLIC 6340a 0 __gnu_cxx::__enable_if<std::__is_scalar<unsigned short>::__value, unsigned short*>::__type std::__fill_n_a<unsigned short*, unsigned long, unsigned short>(unsigned short*, unsigned long, unsigned short const&)
PUBLIC 63451 0 std::_Miter_base<std::move_iterator<unsigned short*> >::iterator_type std::__miter_base<std::move_iterator<unsigned short*> >(std::move_iterator<unsigned short*>)
PUBLIC 6346b 0 unsigned short* std::__copy_move_a2<true, unsigned short*, unsigned short*>(unsigned short*, unsigned short*, unsigned short*)
PUBLIC 634c3 0 std::_Iter_base<std::move_iterator<unsigned short*>, true>::_S_base(std::move_iterator<unsigned short*>)
PUBLIC 634dd 0 unsigned short* std::__copy_move_a<true, unsigned short*, unsigned short*>(unsigned short*, unsigned short*, unsigned short*)
PUBLIC 6350e 0 std::move_iterator<unsigned short*>::base() const
PUBLIC 6351f 0 unsigned short* std::__copy_move<true, true, std::random_access_iterator_tag>::__copy_m<unsigned short>(unsigned short const*, unsigned short const*, unsigned short*)
PUBLIC 6357b 0 google_breakpad::IsValidElf(void const*)
PUBLIC 635a6 0 google_breakpad::ElfClass(void const*)
PUBLIC 635c3 0 google_breakpad::FindElfSection(void const*, char const*, unsigned int, void const**, unsigned long*, int*)
PUBLIC 6371b 0 google_breakpad::FindElfSegment(void const*, unsigned int, void const**, unsigned long*, int*)
PUBLIC 63861 0 void google_breakpad::(anonymous namespace)::FindElfClassSection<google_breakpad::ElfClass32>(char const*, char const*, google_breakpad::ElfClass32::Word, void const**, unsigned long*)
PUBLIC 63a36 0 void google_breakpad::(anonymous namespace)::FindElfClassSection<google_breakpad::ElfClass64>(char const*, char const*, google_breakpad::ElfClass64::Word, void const**, unsigned long*)
PUBLIC 63c04 0 void google_breakpad::(anonymous namespace)::FindElfClassSegment<google_breakpad::ElfClass32>(char const*, google_breakpad::ElfClass32::Word, void const**, unsigned long*)
PUBLIC 63d94 0 void google_breakpad::(anonymous namespace)::FindElfClassSegment<google_breakpad::ElfClass64>(char const*, google_breakpad::ElfClass64::Word, void const**, unsigned long*)
PUBLIC 63f43 0 Elf32_Shdr const* google_breakpad::GetOffset<google_breakpad::ElfClass32, Elf32_Shdr>(google_breakpad::ElfClass32::Ehdr const*, google_breakpad::ElfClass32::Off)
PUBLIC 63f5a 0 char const* google_breakpad::GetOffset<google_breakpad::ElfClass32, char>(google_breakpad::ElfClass32::Ehdr const*, google_breakpad::ElfClass32::Off)
PUBLIC 63f71 0 google_breakpad::ElfClass32::Shdr const* google_breakpad::FindElfSectionByName<google_breakpad::ElfClass32>(char const*, google_breakpad::ElfClass32::Word, google_breakpad::ElfClass32::Shdr const*, char const*, char const*, int)
PUBLIC 640f5 0 Elf64_Shdr const* google_breakpad::GetOffset<google_breakpad::ElfClass64, Elf64_Shdr>(google_breakpad::ElfClass64::Ehdr const*, google_breakpad::ElfClass64::Off)
PUBLIC 6410e 0 char const* google_breakpad::GetOffset<google_breakpad::ElfClass64, char>(google_breakpad::ElfClass64::Ehdr const*, google_breakpad::ElfClass64::Off)
PUBLIC 64127 0 google_breakpad::ElfClass64::Shdr const* google_breakpad::FindElfSectionByName<google_breakpad::ElfClass64>(char const*, google_breakpad::ElfClass64::Word, google_breakpad::ElfClass64::Shdr const*, char const*, char const*, int)
PUBLIC 6428a 0 Elf32_Phdr const* google_breakpad::GetOffset<google_breakpad::ElfClass32, Elf32_Phdr>(google_breakpad::ElfClass32::Ehdr const*, google_breakpad::ElfClass32::Off)
PUBLIC 642a1 0 Elf64_Phdr const* google_breakpad::GetOffset<google_breakpad::ElfClass64, Elf64_Phdr>(google_breakpad::ElfClass64::Ehdr const*, google_breakpad::ElfClass64::Off)
PUBLIC 642ba 0 sys_mmap
PUBLIC 64342 0 google_breakpad::FileID::FileID(char const*)
PUBLIC 643a5 0 google_breakpad::FindElfBuildIDNote(void const*, google_breakpad::wasteful_vector<unsigned char>&)
PUBLIC 64482 0 google_breakpad::HashElfTextSection(void const*, google_breakpad::wasteful_vector<unsigned char>&)
PUBLIC 645a2 0 google_breakpad::FileID::ElfFileIdentifierFromMappedFile(void const*, google_breakpad::wasteful_vector<unsigned char>&)
PUBLIC 645e6 0 google_breakpad::FileID::ElfFileIdentifier(google_breakpad::wasteful_vector<unsigned char>&)
PUBLIC 64688 0 google_breakpad::FileID::ConvertIdentifierToUUIDString[abi:cxx11](google_breakpad::wasteful_vector<unsigned char> const&)
PUBLIC 647e0 0 bool google_breakpad::ElfClassBuildIDNoteIdentifier<google_breakpad::ElfClass32>(void const*, unsigned long, google_breakpad::wasteful_vector<unsigned char>&)
PUBLIC 648dd 0 bool google_breakpad::ElfClassBuildIDNoteIdentifier<google_breakpad::ElfClass64>(void const*, unsigned long, google_breakpad::wasteful_vector<unsigned char>&)
PUBLIC 649da 0 std::vector<unsigned char, google_breakpad::PageStdAllocator<unsigned char> >::resize(unsigned long)
PUBLIC 64a64 0 std::vector<unsigned char, google_breakpad::PageStdAllocator<unsigned char> >::operator[](unsigned long) const
PUBLIC 64a82 0 std::vector<unsigned char, google_breakpad::PageStdAllocator<unsigned char> >::_M_default_append(unsigned long)
PUBLIC 64c80 0 std::vector<unsigned char, google_breakpad::PageStdAllocator<unsigned char> >::_M_erase_at_end(unsigned char*)
PUBLIC 64cc5 0 unsigned char* std::__uninitialized_default_n_a<unsigned char*, unsigned long, google_breakpad::PageStdAllocator<unsigned char> >(unsigned char*, unsigned long, google_breakpad::PageStdAllocator<unsigned char>&)
PUBLIC 64d57 0 decltype (_S_construct({parm#1}, {parm#2})) std::allocator_traits<google_breakpad::PageStdAllocator<unsigned char> >::construct<unsigned char>(google_breakpad::PageStdAllocator<unsigned char>&, unsigned char*)
PUBLIC 64d7d 0 std::enable_if<std::__and_<std::allocator_traits<google_breakpad::PageStdAllocator<unsigned char> >::__construct_helper<unsigned char>::type>::value, void>::type std::allocator_traits<google_breakpad::PageStdAllocator<unsigned char> >::_S_construct<unsigned char>(google_breakpad::PageStdAllocator<unsigned char>&, unsigned char*)
PUBLIC 64da4 0 void __gnu_cxx::new_allocator<unsigned char>::construct<unsigned char>(unsigned char*)
PUBLIC 64dd0 0 CreateGUID(MDGUID*)
PUBLIC 64dea 0 GUIDToString(MDGUID const*, char*, int)
PUBLIC 64ebc 0 GUIDGenerator::BytesToUInt32(unsigned char const*)
PUBLIC 64f09 0 GUIDGenerator::UInt32ToBytes(unsigned char*, unsigned int)
PUBLIC 64f52 0 GUIDGenerator::CreateGUID(MDGUID*)
PUBLIC 64fc7 0 GUIDGenerator::InitOnce()
PUBLIC 64fe7 0 GUIDGenerator::InitOnceImpl()
PUBLIC 64fff 0 my_strlen
PUBLIC 65034 0 my_strcmp
PUBLIC 65092 0 my_strncmp
PUBLIC 65110 0 my_strtoui
PUBLIC 651a9 0 my_uint_len
PUBLIC 651f4 0 my_uitos
PUBLIC 65276 0 my_strchr
PUBLIC 652ba 0 my_strrchr
PUBLIC 652fb 0 my_memchr
PUBLIC 6534e 0 my_read_hex_ptr
PUBLIC 6540b 0 my_read_decimal_ptr
PUBLIC 65475 0 my_memset
PUBLIC 654bb 0 my_strlcpy
PUBLIC 6553d 0 my_strlcat
PUBLIC 655bd 0 my_isspace
PUBLIC 6560c 0 sys_close
PUBLIC 65655 0 sys_fstat
PUBLIC 656a6 0 sys_munmap
PUBLIC 656f6 0 sys_open
PUBLIC 6574d 0 sys_mmap
PUBLIC 657d6 0 google_breakpad::MemoryMappedFile::MemoryMappedFile()
PUBLIC 657f2 0 google_breakpad::MemoryMappedFile::MemoryMappedFile(char const*, unsigned long)
PUBLIC 6582c 0 google_breakpad::MemoryMappedFile::~MemoryMappedFile()
PUBLIC 65848 0 google_breakpad::MemoryMappedFile::Map(char const*, unsigned long)
PUBLIC 65982 0 google_breakpad::MemoryMappedFile::Unmap()
PUBLIC 659ea 0 google_breakpad::MemoryRange::MemoryRange()
PUBLIC 65a0c 0 google_breakpad::MemoryRange::Set(void const*, unsigned long)
PUBLIC 65a44 0 sys_readlink
PUBLIC 65a99 0 google_breakpad::SafeReadLink(char const*, char*, unsigned long)
PUBLIC 65af8 0 sys_close
PUBLIC 65b41 0 sys_read
PUBLIC 65b97 0 sys_sendmsg
PUBLIC 65bee 0 sys_pipe
PUBLIC 65c36 0 google_breakpad::(anonymous namespace)::CrashGenerationClientImpl::CrashGenerationClientImpl(int)
PUBLIC 65c6c 0 google_breakpad::(anonymous namespace)::CrashGenerationClientImpl::~CrashGenerationClientImpl()
PUBLIC 65caa 0 google_breakpad::(anonymous namespace)::CrashGenerationClientImpl::~CrashGenerationClientImpl()
PUBLIC 65cd0 0 google_breakpad::(anonymous namespace)::CrashGenerationClientImpl::RequestDump(void const*, unsigned long)
PUBLIC 65e86 0 google_breakpad::CrashGenerationClient::TryCreate(int)
PUBLIC 65ec4 0 google_breakpad::CrashGenerationClient::CrashGenerationClient()
PUBLIC 65ee2 0 google_breakpad::CrashGenerationClient::~CrashGenerationClient()
PUBLIC 65f18 0 google_breakpad::CrashGenerationClient::~CrashGenerationClient()
PUBLIC 65f3e 0 google_breakpad::ThreadInfo::GetInstructionPointer() const
PUBLIC 65f54 0 google_breakpad::ThreadInfo::FillCPUContext(MDRawContextAMD64*) const
PUBLIC 662d2 0 google_breakpad::ThreadInfo::GetGeneralPurposeRegisters(void**, unsigned long*)
PUBLIC 6633e 0 google_breakpad::ThreadInfo::GetFloatingPointRegisters(void**, unsigned long*)
PUBLIC 663ae 0 google_breakpad::UContextReader::GetStackPointer(ucontext const*)
PUBLIC 663c4 0 google_breakpad::UContextReader::GetInstructionPointer(ucontext const*)
PUBLIC 663da 0 google_breakpad::UContextReader::FillCPUContext(MDRawContextAMD64*, ucontext const*, _libc_fpstate const*)
PUBLIC 66710 0 isLegalUTF8
PUBLIC 667e0 0 ConvertUTF32toUTF16
PUBLIC 668e0 0 ConvertUTF16toUTF32
PUBLIC 669e0 0 ConvertUTF16toUTF8
PUBLIC 66be0 0 isLegalUTF8Sequence
PUBLIC 66c10 0 ConvertUTF8toUTF16
PUBLIC 66e80 0 ConvertUTF32toUTF8
PUBLIC 67020 0 ConvertUTF8toUTF32
PUBLIC 672a8 0 google_breakpad::GoogleCrashdumpUploader::GoogleCrashdumpUploader(std::__cxx11::basic_string<char, std::char_traits<char>, std::allocator<char> > const&, std::__cxx11::basic_string<char, std::char_traits<char>, std::allocator<char> > const&, std::__cxx11::basic_string<char, std::char_traits<char>, std::allocator<char> > const&, std::__cxx11::basic_string<char, std::char_traits<char>, std::allocator<char> > const&, std::__cxx11::basic_string<char, std::char_traits<char>, std::allocator<char> > const&, std::__cxx11::basic_string<char, std::char_traits<char>, std::allocator<char> > const&, std::__cxx11::basic_string<char, std::char_traits<char>, std::allocator<char> > const&, std::__cxx11::basic_string<char, std::char_traits<char>, std::allocator<char> > const&, std::__cxx11::basic_string<char, std::char_traits<char>, std::allocator<char> > const&, std::__cxx11::basic_string<char, std::char_traits<char>, std::allocator<char> > const&, std::__cxx11::basic_string<char, std::char_traits<char>, std::allocator<char> > const&)
PUBLIC 67510 0 google_breakpad::GoogleCrashdumpUploader::GoogleCrashdumpUploader(std::__cxx11::basic_string<char, std::char_traits<char>, std::allocator<char> > const&, std::__cxx11::basic_string<char, std::char_traits<char>, std::allocator<char> > const&, std::__cxx11::basic_string<char, std::char_traits<char>, std::allocator<char> > const&, std::__cxx11::basic_string<char, std::char_traits<char>, std::allocator<char> > const&, std::__cxx11::basic_string<char, std::char_traits<char>, std::allocator<char> > const&, std::__cxx11::basic_string<char, std::char_traits<char>, std::allocator<char> > const&, std::__cxx11::basic_string<char, std::char_traits<char>, std::allocator<char> > const&, std::__cxx11::basic_string<char, std::char_traits<char>, std::allocator<char> > const&, std::__cxx11::basic_string<char, std::char_traits<char>, std::allocator<char> > const&, std::__cxx11::basic_string<char, std::char_traits<char>, std::allocator<char> > const&, std::__cxx11::basic_string<char, std::char_traits<char>, std::allocator<char> > const&, google_breakpad::LibcurlWrapper*)
PUBLIC 6774a 0 google_breakpad::GoogleCrashdumpUploader::Init(std::__cxx11::basic_string<char, std::char_traits<char>, std::allocator<char> > const&, std::__cxx11::basic_string<char, std::char_traits<char>, std::allocator<char> > const&, std::__cxx11::basic_string<char, std::char_traits<char>, std::allocator<char> > const&, std::__cxx11::basic_string<char, std::char_traits<char>, std::allocator<char> > const&, std::__cxx11::basic_string<char, std::char_traits<char>, std::allocator<char> > const&, std::__cxx11::basic_string<char, std::char_traits<char>, std::allocator<char> > const&, std::__cxx11::basic_string<char, std::char_traits<char>, std::allocator<char> > const&, std::__cxx11::basic_string<char, std::char_traits<char>, std::allocator<char> > const&, std::__cxx11::basic_string<char, std::char_traits<char>, std::allocator<char> > const&, std::__cxx11::basic_string<char, std::char_traits<char>, std::allocator<char> > const&, std::__cxx11::basic_string<char, std::char_traits<char>, std::allocator<char> > const&, google_breakpad::LibcurlWrapper*)
PUBLIC 679fc 0 google_breakpad::GoogleCrashdumpUploader::CheckRequiredParametersArePresent()
PUBLIC 67b0c 0 google_breakpad::GoogleCrashdumpUploader::Upload(int*, std::__cxx11::basic_string<char, std::char_traits<char>, std::allocator<char> >*, std::__cxx11::basic_string<char, std::char_traits<char>, std::allocator<char> >*)
PUBLIC 681f2 0 __static_initialization_and_destruction_0(int, int)
PUBLIC 68230 0 _GLOBAL__sub_I__ZN15google_breakpad23GoogleCrashdumpUploaderC2ERKNSt7__cxx1112basic_stringIcSt11char_traitsIcESaIcEEES8_S8_S8_S8_S8_S8_S8_S8_S8_S8_
PUBLIC 68246 0 google_breakpad::scoped_ptr<google_breakpad::LibcurlWrapper>::scoped_ptr(google_breakpad::LibcurlWrapper*)
PUBLIC 68260 0 std::map<std::__cxx11::basic_string<char, std::char_traits<char>, std::allocator<char> >, std::__cxx11::basic_string<char, std::char_traits<char>, std::allocator<char> >, std::less<std::__cxx11::basic_string<char, std::char_traits<char>, std::allocator<char> > >, std::allocator<std::pair<std::__cxx11::basic_string<char, std::char_traits<char>, std::allocator<char> > const, std::__cxx11::basic_string<char, std::char_traits<char>, std::allocator<char> > > > >::map()
PUBLIC 6827c 0 google_breakpad::scoped_ptr<google_breakpad::LibcurlWrapper>::reset(google_breakpad::LibcurlWrapper*)
PUBLIC 682d0 0 google_breakpad::scoped_ptr<google_breakpad::LibcurlWrapper>::operator->() const
PUBLIC 6830a 0 std::map<std::__cxx11::basic_string<char, std::char_traits<char>, std::allocator<char> >, std::__cxx11::basic_string<char, std::char_traits<char>, std::allocator<char> >, std::less<std::__cxx11::basic_string<char, std::char_traits<char>, std::allocator<char> > >, std::allocator<std::pair<std::__cxx11::basic_string<char, std::char_traits<char>, std::allocator<char> > const, std::__cxx11::basic_string<char, std::char_traits<char>, std::allocator<char> > > > >::operator[](std::__cxx11::basic_string<char, std::char_traits<char>, std::allocator<char> >&&)
PUBLIC 6843a 0 std::_Rb_tree<std::__cxx11::basic_string<char, std::char_traits<char>, std::allocator<char> >, std::pair<std::__cxx11::basic_string<char, std::char_traits<char>, std::allocator<char> > const, std::__cxx11::basic_string<char, std::char_traits<char>, std::allocator<char> > >, std::_Select1st<std::pair<std::__cxx11::basic_string<char, std::char_traits<char>, std::allocator<char> > const, std::__cxx11::basic_string<char, std::char_traits<char>, std::allocator<char> > > >, std::less<std::__cxx11::basic_string<char, std::char_traits<char>, std::allocator<char> > >, std::allocator<std::pair<std::__cxx11::basic_string<char, std::char_traits<char>, std::allocator<char> > const, std::__cxx11::basic_string<char, std::char_traits<char>, std::allocator<char> > > > >::_Rb_tree()
PUBLIC 68456 0 std::map<std::__cxx11::basic_string<char, std::char_traits<char>, std::allocator<char> >, std::__cxx11::basic_string<char, std::char_traits<char>, std::allocator<char> >, std::less<std::__cxx11::basic_string<char, std::char_traits<char>, std::allocator<char> > >, std::allocator<std::pair<std::__cxx11::basic_string<char, std::char_traits<char>, std::allocator<char> > const, std::__cxx11::basic_string<char, std::char_traits<char>, std::allocator<char> > > > >::lower_bound(std::__cxx11::basic_string<char, std::char_traits<char>, std::allocator<char> > const&)
PUBLIC 6847c 0 std::map<std::__cxx11::basic_string<char, std::char_traits<char>, std::allocator<char> >, std::__cxx11::basic_string<char, std::char_traits<char>, std::allocator<char> >, std::less<std::__cxx11::basic_string<char, std::char_traits<char>, std::allocator<char> > >, std::allocator<std::pair<std::__cxx11::basic_string<char, std::char_traits<char>, std::allocator<char> > const, std::__cxx11::basic_string<char, std::char_traits<char>, std::allocator<char> > > > >::end()
PUBLIC 68496 0 std::map<std::__cxx11::basic_string<char, std::char_traits<char>, std::allocator<char> >, std::__cxx11::basic_string<char, std::char_traits<char>, std::allocator<char> >, std::less<std::__cxx11::basic_string<char, std::char_traits<char>, std::allocator<char> > >, std::allocator<std::pair<std::__cxx11::basic_string<char, std::char_traits<char>, std::allocator<char> > const, std::__cxx11::basic_string<char, std::char_traits<char>, std::allocator<char> > > > >::key_comp() const
PUBLIC 684b8 0 std::_Rb_tree_iterator<std::pair<std::__cxx11::basic_string<char, std::char_traits<char>, std::allocator<char> > const, std::__cxx11::basic_string<char, std::char_traits<char>, std::allocator<char> > > >::operator*() const
PUBLIC 684d6 0 std::_Head_base<0ul, std::__cxx11::basic_string<char, std::char_traits<char>, std::allocator<char> >&&, false>::_Head_base<std::__cxx11::basic_string<char, std::char_traits<char>, std::allocator<char> > >(std::__cxx11::basic_string<char, std::char_traits<char>, std::allocator<char> >&&)
PUBLIC 68500 0 std::_Tuple_impl<0ul, std::__cxx11::basic_string<char, std::char_traits<char>, std::allocator<char> >&&>::_Tuple_impl<std::__cxx11::basic_string<char, std::char_traits<char>, std::allocator<char> > >(std::__cxx11::basic_string<char, std::char_traits<char>, std::allocator<char> >&&)
PUBLIC 68532 0 std::tuple<std::__cxx11::basic_string<char, std::char_traits<char>, std::allocator<char> >&&>::tuple<std::__cxx11::basic_string<char, std::char_traits<char>, std::allocator<char> >, void>(std::__cxx11::basic_string<char, std::char_traits<char>, std::allocator<char> >&&)
PUBLIC 68563 0 std::_Head_base<0ul, std::__cxx11::basic_string<char, std::char_traits<char>, std::allocator<char> >&&, false>::_M_head(std::_Head_base<0ul, std::__cxx11::basic_string<char, std::char_traits<char>, std::allocator<char> >&&, false>&)
PUBLIC 68574 0 std::_Tuple_impl<0ul, std::__cxx11::basic_string<char, std::char_traits<char>, std::allocator<char> >&&>::_M_head(std::_Tuple_impl<0ul, std::__cxx11::basic_string<char, std::char_traits<char>, std::allocator<char> >&&>&)
PUBLIC 6858e 0 std::__cxx11::basic_string<char, std::char_traits<char>, std::allocator<char> >&& std::forward<std::__cxx11::basic_string<char, std::char_traits<char>, std::allocator<char> >&&>(std::remove_reference<std::__cxx11::basic_string<char, std::char_traits<char>, std::allocator<char> >&&>::type&)
PUBLIC 6859c 0 std::_Tuple_impl<0ul, std::__cxx11::basic_string<char, std::char_traits<char>, std::allocator<char> >&&>::_Tuple_impl(std::_Tuple_impl<0ul, std::__cxx11::basic_string<char, std::char_traits<char>, std::allocator<char> >&&>&&)
PUBLIC 685d6 0 std::tuple<std::__cxx11::basic_string<char, std::char_traits<char>, std::allocator<char> >&&>::tuple(std::tuple<std::__cxx11::basic_string<char, std::char_traits<char>, std::allocator<char> >&&>&&)
PUBLIC 685fc 0 std::tuple<std::__cxx11::basic_string<char, std::char_traits<char>, std::allocator<char> >&&> std::forward_as_tuple<std::__cxx11::basic_string<char, std::char_traits<char>, std::allocator<char> > >(std::__cxx11::basic_string<char, std::char_traits<char>, std::allocator<char> >&&)
PUBLIC 68630 0 std::piecewise_construct_t const& std::forward<std::piecewise_construct_t const&>(std::remove_reference<std::piecewise_construct_t const&>::type&)
PUBLIC 6863e 0 std::tuple<std::__cxx11::basic_string<char, std::char_traits<char>, std::allocator<char> >&&>&& std::forward<std::tuple<std::__cxx11::basic_string<char, std::char_traits<char>, std::allocator<char> >&&> >(std::remove_reference<std::tuple<std::__cxx11::basic_string<char, std::char_traits<char>, std::allocator<char> >&&> >::type&)
PUBLIC 6864c 0 std::tuple<>&& std::forward<std::tuple<> >(std::remove_reference<std::tuple<> >::type&)
PUBLIC 6865a 0 std::_Rb_tree_iterator<std::pair<std::__cxx11::basic_string<char, std::char_traits<char>, std::allocator<char> > const, std::__cxx11::basic_string<char, std::char_traits<char>, std::allocator<char> > > > std::_Rb_tree<std::__cxx11::basic_string<char, std::char_traits<char>, std::allocator<char> >, std::pair<std::__cxx11::basic_string<char, std::char_traits<char>, std::allocator<char> > const, std::__cxx11::basic_string<char, std::char_traits<char>, std::allocator<char> > >, std::_Select1st<std::pair<std::__cxx11::basic_string<char, std::char_traits<char>, std::allocator<char> > const, std::__cxx11::basic_string<char, std::char_traits<char>, std::allocator<char> > > >, std::less<std::__cxx11::basic_string<char, std::char_traits<char>, std::allocator<char> > >, std::allocator<std::pair<std::__cxx11::basic_string<char, std::char_traits<char>, std::allocator<char> > const, std::__cxx11::basic_string<char, std::char_traits<char>, std::allocator<char> > > > >::_M_emplace_hint_unique<std::piecewise_construct_t const&, std::tuple<std::__cxx11::basic_string<char, std::char_traits<char>, std::allocator<char> >&&>, std::tuple<> >(std::_Rb_tree_const_iterator<std::pair<std::__cxx11::basic_string<char, std::char_traits<char>, std::allocator<char> > const, std::__cxx11::basic_string<char, std::char_traits<char>, std::allocator<char> > > >, std::piecewise_construct_t const&, std::tuple<std::__cxx11::basic_string<char, std::char_traits<char>, std::allocator<char> >&&>&&, std::tuple<>&&)
PUBLIC 68772 0 std::_Rb_tree<std::__cxx11::basic_string<char, std::char_traits<char>, std::allocator<char> >, std::pair<std::__cxx11::basic_string<char, std::char_traits<char>, std::allocator<char> > const, std::__cxx11::basic_string<char, std::char_traits<char>, std::allocator<char> > >, std::_Select1st<std::pair<std::__cxx11::basic_string<char, std::char_traits<char>, std::allocator<char> > const, std::__cxx11::basic_string<char, std::char_traits<char>, std::allocator<char> > > >, std::less<std::__cxx11::basic_string<char, std::char_traits<char>, std::allocator<char> > >, std::allocator<std::pair<std::__cxx11::basic_string<char, std::char_traits<char>, std::allocator<char> > const, std::__cxx11::basic_string<char, std::char_traits<char>, std::allocator<char> > > > >::_Rb_tree_impl<std::less<std::__cxx11::basic_string<char, std::char_traits<char>, std::allocator<char> > >, true>::_Rb_tree_impl()
PUBLIC 687d4 0 std::_Rb_tree<std::__cxx11::basic_string<char, std::char_traits<char>, std::allocator<char> >, std::pair<std::__cxx11::basic_string<char, std::char_traits<char>, std::allocator<char> > const, std::__cxx11::basic_string<char, std::char_traits<char>, std::allocator<char> > >, std::_Select1st<std::pair<std::__cxx11::basic_string<char, std::char_traits<char>, std::allocator<char> > const, std::__cxx11::basic_string<char, std::char_traits<char>, std::allocator<char> > > >, std::less<std::__cxx11::basic_string<char, std::char_traits<char>, std::allocator<char> > >, std::allocator<std::pair<std::__cxx11::basic_string<char, std::char_traits<char>, std::allocator<char> > const, std::__cxx11::basic_string<char, std::char_traits<char>, std::allocator<char> > > > >::lower_bound(std::__cxx11::basic_string<char, std::char_traits<char>, std::allocator<char> > const&)
PUBLIC 68820 0 std::_Rb_tree<std::__cxx11::basic_string<char, std::char_traits<char>, std::allocator<char> >, std::pair<std::__cxx11::basic_string<char, std::char_traits<char>, std::allocator<char> > const, std::__cxx11::basic_string<char, std::char_traits<char>, std::allocator<char> > >, std::_Select1st<std::pair<std::__cxx11::basic_string<char, std::char_traits<char>, std::allocator<char> > const, std::__cxx11::basic_string<char, std::char_traits<char>, std::allocator<char> > > >, std::less<std::__cxx11::basic_string<char, std::char_traits<char>, std::allocator<char> > >, std::allocator<std::pair<std::__cxx11::basic_string<char, std::char_traits<char>, std::allocator<char> > const, std::__cxx11::basic_string<char, std::char_traits<char>, std::allocator<char> > > > >::key_comp() const
PUBLIC 6882a 0 std::_Rb_tree_node<std::pair<std::__cxx11::basic_string<char, std::char_traits<char>, std::allocator<char> > const, std::__cxx11::basic_string<char, std::char_traits<char>, std::allocator<char> > > >* std::_Rb_tree<std::__cxx11::basic_string<char, std::char_traits<char>, std::allocator<char> >, std::pair<std::__cxx11::basic_string<char, std::char_traits<char>, std::allocator<char> > const, std::__cxx11::basic_string<char, std::char_traits<char>, std::allocator<char> > >, std::_Select1st<std::pair<std::__cxx11::basic_string<char, std::char_traits<char>, std::allocator<char> > const, std::__cxx11::basic_string<char, std::char_traits<char>, std::allocator<char> > > >, std::less<std::__cxx11::basic_string<char, std::char_traits<char>, std::allocator<char> > >, std::allocator<std::pair<std::__cxx11::basic_string<char, std::char_traits<char>, std::allocator<char> > const, std::__cxx11::basic_string<char, std::char_traits<char>, std::allocator<char> > > > >::_M_create_node<std::piecewise_construct_t const&, std::tuple<std::__cxx11::basic_string<char, std::char_traits<char>, std::allocator<char> >&&>, std::tuple<> >(std::piecewise_construct_t const&, std::tuple<std::__cxx11::basic_string<char, std::char_traits<char>, std::allocator<char> >&&>&&, std::tuple<>&&)
PUBLIC 688a6 0 std::_Rb_tree<std::__cxx11::basic_string<char, std::char_traits<char>, std::allocator<char> >, std::pair<std::__cxx11::basic_string<char, std::char_traits<char>, std::allocator<char> > const, std::__cxx11::basic_string<char, std::char_traits<char>, std::allocator<char> > >, std::_Select1st<std::pair<std::__cxx11::basic_string<char, std::char_traits<char>, std::allocator<char> > const, std::__cxx11::basic_string<char, std::char_traits<char>, std::allocator<char> > > >, std::less<std::__cxx11::basic_string<char, std::char_traits<char>, std::allocator<char> > >, std::allocator<std::pair<std::__cxx11::basic_string<char, std::char_traits<char>, std::allocator<char> > const, std::__cxx11::basic_string<char, std::char_traits<char>, std::allocator<char> > > > >::_M_insert_node(std::_Rb_tree_node_base*, std::_Rb_tree_node_base*, std::_Rb_tree_node<std::pair<std::__cxx11::basic_string<char, std::char_traits<char>, std::allocator<char> > const, std::__cxx11::basic_string<char, std::char_traits<char>, std::allocator<char> > > >*)
PUBLIC 68968 0 std::allocator<std::_Rb_tree_node<std::pair<std::__cxx11::basic_string<char, std::char_traits<char>, std::allocator<char> > const, std::__cxx11::basic_string<char, std::char_traits<char>, std::allocator<char> > > > >::allocator()
PUBLIC 68984 0 std::_Rb_tree<std::__cxx11::basic_string<char, std::char_traits<char>, std::allocator<char> >, std::pair<std::__cxx11::basic_string<char, std::char_traits<char>, std::allocator<char> > const, std::__cxx11::basic_string<char, std::char_traits<char>, std::allocator<char> > >, std::_Select1st<std::pair<std::__cxx11::basic_string<char, std::char_traits<char>, std::allocator<char> > const, std::__cxx11::basic_string<char, std::char_traits<char>, std::allocator<char> > > >, std::less<std::__cxx11::basic_string<char, std::char_traits<char>, std::allocator<char> > >, std::allocator<std::pair<std::__cxx11::basic_string<char, std::char_traits<char>, std::allocator<char> > const, std::__cxx11::basic_string<char, std::char_traits<char>, std::allocator<char> > > > >::_M_lower_bound(std::_Rb_tree_node<std::pair<std::__cxx11::basic_string<char, std::char_traits<char>, std::allocator<char> > const, std::__cxx11::basic_string<char, std::char_traits<char>, std::allocator<char> > > >*, std::_Rb_tree_node<std::pair<std::__cxx11::basic_string<char, std::char_traits<char>, std::allocator<char> > const, std::__cxx11::basic_string<char, std::char_traits<char>, std::allocator<char> > > >*, std::__cxx11::basic_string<char, std::char_traits<char>, std::allocator<char> > const&)
PUBLIC 68a12 0 void std::_Rb_tree<std::__cxx11::basic_string<char, std::char_traits<char>, std::allocator<char> >, std::pair<std::__cxx11::basic_string<char, std::char_traits<char>, std::allocator<char> > const, std::__cxx11::basic_string<char, std::char_traits<char>, std::allocator<char> > >, std::_Select1st<std::pair<std::__cxx11::basic_string<char, std::char_traits<char>, std::allocator<char> > const, std::__cxx11::basic_string<char, std::char_traits<char>, std::allocator<char> > > >, std::less<std::__cxx11::basic_string<char, std::char_traits<char>, std::allocator<char> > >, std::allocator<std::pair<std::__cxx11::basic_string<char, std::char_traits<char>, std::allocator<char> > const, std::__cxx11::basic_string<char, std::char_traits<char>, std::allocator<char> > > > >::_M_construct_node<std::piecewise_construct_t const&, std::tuple<std::__cxx11::basic_string<char, std::char_traits<char>, std::allocator<char> >&&>, std::tuple<> >(std::_Rb_tree_node<std::pair<std::__cxx11::basic_string<char, std::char_traits<char>, std::allocator<char> > const, std::__cxx11::basic_string<char, std::char_traits<char>, std::allocator<char> > > >*, std::piecewise_construct_t const&, std::tuple<std::__cxx11::basic_string<char, std::char_traits<char>, std::allocator<char> >&&>&&, std::tuple<>&&)
PUBLIC 68af1 0 void std::allocator_traits<std::allocator<std::_Rb_tree_node<std::pair<std::__cxx11::basic_string<char, std::char_traits<char>, std::allocator<char> > const, std::__cxx11::basic_string<char, std::char_traits<char>, std::allocator<char> > > > > >::construct<std::pair<std::__cxx11::basic_string<char, std::char_traits<char>, std::allocator<char> > const, std::__cxx11::basic_string<char, std::char_traits<char>, std::allocator<char> > >, std::piecewise_construct_t const&, std::tuple<std::__cxx11::basic_string<char, std::char_traits<char>, std::allocator<char> >&&>, std::tuple<> >(std::allocator<std::_Rb_tree_node<std::pair<std::__cxx11::basic_string<char, std::char_traits<char>, std::allocator<char> > const, std::__cxx11::basic_string<char, std::char_traits<char>, std::allocator<char> > > > >&, std::pair<std::__cxx11::basic_string<char, std::char_traits<char>, std::allocator<char> > const, std::__cxx11::basic_string<char, std::char_traits<char>, std::allocator<char> > >*, std::piecewise_construct_t const&, std::tuple<std::__cxx11::basic_string<char, std::char_traits<char>, std::allocator<char> >&&>&&, std::tuple<>&&)
PUBLIC 68b5e 0 void __gnu_cxx::new_allocator<std::_Rb_tree_node<std::pair<std::__cxx11::basic_string<char, std::char_traits<char>, std::allocator<char> > const, std::__cxx11::basic_string<char, std::char_traits<char>, std::allocator<char> > > > >::construct<std::pair<std::__cxx11::basic_string<char, std::char_traits<char>, std::allocator<char> > const, std::__cxx11::basic_string<char, std::char_traits<char>, std::allocator<char> > >, std::piecewise_construct_t const&, std::tuple<std::__cxx11::basic_string<char, std::char_traits<char>, std::allocator<char> >&&>, std::tuple<> >(std::pair<std::__cxx11::basic_string<char, std::char_traits<char>, std::allocator<char> > const, std::__cxx11::basic_string<char, std::char_traits<char>, std::allocator<char> > >*, std::piecewise_construct_t const&, std::tuple<std::__cxx11::basic_string<char, std::char_traits<char>, std::allocator<char> >&&>&&, std::tuple<>&&)
PUBLIC 68c1a 0 std::pair<std::__cxx11::basic_string<char, std::char_traits<char>, std::allocator<char> > const, std::__cxx11::basic_string<char, std::char_traits<char>, std::allocator<char> > >::pair<std::__cxx11::basic_string<char, std::char_traits<char>, std::allocator<char> >&&>(std::piecewise_construct_t, std::tuple<std::__cxx11::basic_string<char, std::char_traits<char>, std::allocator<char> >&&>, std::tuple<>)
PUBLIC 68c4c 0 std::__cxx11::basic_string<char, std::char_traits<char>, std::allocator<char> >& std::__get_helper<0ul, std::__cxx11::basic_string<char, std::char_traits<char>, std::allocator<char> >&&>(std::_Tuple_impl<0ul, std::__cxx11::basic_string<char, std::char_traits<char>, std::allocator<char> >&&>&)
PUBLIC 68c66 0 std::tuple_element<0ul, std::tuple<std::__cxx11::basic_string<char, std::char_traits<char>, std::allocator<char> >&&> >::type& std::get<0ul, std::__cxx11::basic_string<char, std::char_traits<char>, std::allocator<char> >&&>(std::tuple<std::__cxx11::basic_string<char, std::char_traits<char>, std::allocator<char> >&&>&)
PUBLIC 68c80 0 std::pair<std::__cxx11::basic_string<char, std::char_traits<char>, std::allocator<char> > const, std::__cxx11::basic_string<char, std::char_traits<char>, std::allocator<char> > >::pair<std::__cxx11::basic_string<char, std::char_traits<char>, std::allocator<char> >&&, 0ul>(std::tuple<std::__cxx11::basic_string<char, std::char_traits<char>, std::allocator<char> >&&>&, std::tuple<>&, std::_Index_tuple<0ul>, std::_Index_tuple<>)
PUBLIC 68cce 0 google_breakpad::LibcurlWrapper::LibcurlWrapper()
PUBLIC 68de8 0 google_breakpad::LibcurlWrapper::~LibcurlWrapper()
PUBLIC 68e28 0 google_breakpad::LibcurlWrapper::~LibcurlWrapper()
PUBLIC 68e4e 0 google_breakpad::LibcurlWrapper::SetProxy(std::__cxx11::basic_string<char, std::char_traits<char>, std::allocator<char> > const&, std::__cxx11::basic_string<char, std::char_traits<char>, std::allocator<char> > const&)
PUBLIC 68f5a 0 google_breakpad::LibcurlWrapper::AddFile(std::__cxx11::basic_string<char, std::char_traits<char>, std::allocator<char> > const&, std::__cxx11::basic_string<char, std::char_traits<char>, std::allocator<char> > const&)
PUBLIC 69021 0 google_breakpad::WriteCallback(void*, unsigned long, unsigned long, void*)
PUBLIC 6907a 0 google_breakpad::LibcurlWrapper::SendRequest(std::__cxx11::basic_string<char, std::char_traits<char>, std::allocator<char> > const&, std::map<std::__cxx11::basic_string<char, std::char_traits<char>, std::allocator<char> >, std::__cxx11::basic_string<char, std::char_traits<char>, std::allocator<char> >, std::less<std::__cxx11::basic_string<char, std::char_traits<char>, std::allocator<char> > >, std::allocator<std::pair<std::__cxx11::basic_string<char, std::char_traits<char>, std::allocator<char> > const, std::__cxx11::basic_string<char, std::char_traits<char>, std::allocator<char> > > > > const&, int*, std::__cxx11::basic_string<char, std::char_traits<char>, std::allocator<char> >*, std::__cxx11::basic_string<char, std::char_traits<char>, std::allocator<char> >*)
PUBLIC 693fa 0 google_breakpad::LibcurlWrapper::Init()
PUBLIC 69522 0 google_breakpad::LibcurlWrapper::SetFunctionPointers()
PUBLIC 6987a 0 __static_initialization_and_destruction_0(int, int)
PUBLIC 698b8 0 _GLOBAL__sub_I__ZN15google_breakpad14LibcurlWrapperC2Ev
PUBLIC 698ce 0 std::_Rb_tree_const_iterator<std::pair<std::__cxx11::basic_string<char, std::char_traits<char>, std::allocator<char> > const, std::__cxx11::basic_string<char, std::char_traits<char>, std::allocator<char> > > >::operator->() const
PUBLIC 698f0 0 __libc_csu_init
PUBLIC 69960 0 __libc_csu_fini
PUBLIC 69970 0 stat
PUBLIC 69980 0 _fini
STACK CFI INIT 3e6f0 2a .cfa: $rsp 8 + .ra: .cfa -8 + ^
STACK CFI INIT 3d3c0 1330 .cfa: $rsp 16 + .ra: .cfa -8 + ^
STACK CFI 3d3c6 .cfa: $rsp 24 +
STACK CFI INIT 3f39a 12 .cfa: $rsp 8 + .ra: .cfa -8 + ^
STACK CFI 3f39b $rbp: .cfa -16 + ^ .cfa: $rsp 16 +
STACK CFI 3f39e .cfa: $rbp 16 +
STACK CFI 3f3ab .cfa: $rsp 8 +
STACK CFI INIT 3f3ac 14 .cfa: $rsp 8 + .ra: .cfa -8 + ^
STACK CFI 3f3ad $rbp: .cfa -16 + ^ .cfa: $rsp 16 +
STACK CFI 3f3b0 .cfa: $rbp 16 +
STACK CFI 3f3bf .cfa: $rsp 8 +
STACK CFI INIT 3f3c0 43 .cfa: $rsp 8 + .ra: .cfa -8 + ^
STACK CFI 3f3c1 $rbp: .cfa -16 + ^ .cfa: $rsp 16 +
STACK CFI 3f3c4 .cfa: $rbp 16 +
STACK CFI 3f402 .cfa: $rsp 8 +
STACK CFI INIT 3f404 e .cfa: $rsp 8 + .ra: .cfa -8 + ^
STACK CFI 3f405 $rbp: .cfa -16 + ^ .cfa: $rsp 16 +
STACK CFI 3f408 .cfa: $rbp 16 +
STACK CFI 3f411 .cfa: $rsp 8 +
STACK CFI INIT 3f412 e .cfa: $rsp 8 + .ra: .cfa -8 + ^
STACK CFI 3f413 $rbp: .cfa -16 + ^ .cfa: $rsp 16 +
STACK CFI 3f416 .cfa: $rbp 16 +
STACK CFI 3f41f .cfa: $rsp 8 +
STACK CFI INIT 3f420 17 .cfa: $rsp 8 + .ra: .cfa -8 + ^
STACK CFI 3f421 $rbp: .cfa -16 + ^ .cfa: $rsp 16 +
STACK CFI 3f424 .cfa: $rbp 16 +
STACK CFI 3f436 .cfa: $rsp 8 +
STACK CFI INIT 3f438 36 .cfa: $rsp 8 + .ra: .cfa -8 + ^
STACK CFI 3f439 $rbp: .cfa -16 + ^ .cfa: $rsp 16 +
STACK CFI 3f43c .cfa: $rbp 16 +
STACK CFI 3f46d .cfa: $rsp 8 +
STACK CFI INIT 3f46e 3b .cfa: $rsp 8 + .ra: .cfa -8 + ^
STACK CFI 3f46f $rbp: .cfa -16 + ^ .cfa: $rsp 16 +
STACK CFI 3f472 .cfa: $rbp 16 +
STACK CFI 3f4a8 .cfa: $rsp 8 +
STACK CFI INIT 3f4aa 6d .cfa: $rsp 8 + .ra: .cfa -8 + ^
STACK CFI 3f4ab $rbp: .cfa -16 + ^ .cfa: $rsp 16 +
STACK CFI 3f4ae .cfa: $rbp 16 +
STACK CFI 3f516 .cfa: $rsp 8 +
STACK CFI INIT 3e7e6 31 .cfa: $rsp 8 + .ra: .cfa -8 + ^
STACK CFI 3e7e7 $rbp: .cfa -16 + ^ .cfa: $rsp 16 +
STACK CFI 3e7ea .cfa: $rbp 16 +
STACK CFI 3e816 .cfa: $rsp 8 +
STACK CFI INIT 3e818 1e .cfa: $rsp 8 + .ra: .cfa -8 + ^
STACK CFI 3e819 $rbp: .cfa -16 + ^ .cfa: $rsp 16 +
STACK CFI 3e81c .cfa: $rbp 16 +
STACK CFI 3e835 .cfa: $rsp 8 +
STACK CFI INIT 3f518 1b .cfa: $rsp 8 + .ra: .cfa -8 + ^
STACK CFI 3f519 $rbp: .cfa -16 + ^ .cfa: $rsp 16 +
STACK CFI 3f51c .cfa: $rbp 16 +
STACK CFI 3f532 .cfa: $rsp 8 +
STACK CFI INIT 3f534 1b .cfa: $rsp 8 + .ra: .cfa -8 + ^
STACK CFI 3f535 $rbp: .cfa -16 + ^ .cfa: $rsp 16 +
STACK CFI 3f538 .cfa: $rbp 16 +
STACK CFI 3f54e .cfa: $rsp 8 +
STACK CFI INIT 3e836 4cc .cfa: $rsp 8 + .ra: .cfa -8 + ^
STACK CFI 3e837 $rbp: .cfa -16 + ^ .cfa: $rsp 16 +
STACK CFI 3e83a .cfa: $rbp 16 +
STACK CFI 3e842 $rbx: .cfa -24 + ^
STACK CFI 3ed01 .cfa: $rsp 8 +
STACK CFI INIT 3f550 1a .cfa: $rsp 8 + .ra: .cfa -8 + ^
STACK CFI 3f551 $rbp: .cfa -16 + ^ .cfa: $rsp 16 +
STACK CFI 3f554 .cfa: $rbp 16 +
STACK CFI 3f569 .cfa: $rsp 8 +
STACK CFI INIT 3f56a 1a .cfa: $rsp 8 + .ra: .cfa -8 + ^
STACK CFI 3f56b $rbp: .cfa -16 + ^ .cfa: $rsp 16 +
STACK CFI 3f56e .cfa: $rbp 16 +
STACK CFI 3f583 .cfa: $rsp 8 +
STACK CFI INIT 3f584 b .cfa: $rsp 8 + .ra: .cfa -8 + ^
STACK CFI 3f585 $rbp: .cfa -16 + ^ .cfa: $rsp 16 +
STACK CFI 3f588 .cfa: $rbp 16 +
STACK CFI 3f58e .cfa: $rsp 8 +
STACK CFI INIT 3f590 1b .cfa: $rsp 8 + .ra: .cfa -8 + ^
STACK CFI 3f591 $rbp: .cfa -16 + ^ .cfa: $rsp 16 +
STACK CFI 3f594 .cfa: $rbp 16 +
STACK CFI 3f5aa .cfa: $rsp 8 +
STACK CFI INIT 3ed02 e .cfa: $rsp 8 + .ra: .cfa -8 + ^
STACK CFI 3ed03 $rbp: .cfa -16 + ^ .cfa: $rsp 16 +
STACK CFI 3ed06 .cfa: $rbp 16 +
STACK CFI 3ed0f .cfa: $rsp 8 +
STACK CFI INIT 3ed10 99 .cfa: $rsp 8 + .ra: .cfa -8 + ^
STACK CFI 3ed11 $rbp: .cfa -16 + ^ .cfa: $rsp 16 +
STACK CFI 3ed14 .cfa: $rbp 16 +
STACK CFI 3ed19 $rbx: .cfa -24 + ^
STACK CFI 3eda8 .cfa: $rsp 8 +
STACK CFI INIT 3f5ac b .cfa: $rsp 8 + .ra: .cfa -8 + ^
STACK CFI 3f5ad $rbp: .cfa -16 + ^ .cfa: $rsp 16 +
STACK CFI 3f5b0 .cfa: $rbp 16 +
STACK CFI 3f5b6 .cfa: $rsp 8 +
STACK CFI INIT 3eda9 e .cfa: $rsp 8 + .ra: .cfa -8 + ^
STACK CFI 3edaa $rbp: .cfa -16 + ^ .cfa: $rsp 16 +
STACK CFI 3edad .cfa: $rbp 16 +
STACK CFI 3edb6 .cfa: $rsp 8 +
STACK CFI INIT 3edb8 99 .cfa: $rsp 8 + .ra: .cfa -8 + ^
STACK CFI 3edb9 $rbp: .cfa -16 + ^ .cfa: $rsp 16 +
STACK CFI 3edbc .cfa: $rbp 16 +
STACK CFI 3edc1 $rbx: .cfa -24 + ^
STACK CFI 3ee50 .cfa: $rsp 8 +
STACK CFI INIT 3f5b7 36 .cfa: $rsp 8 + .ra: .cfa -8 + ^
STACK CFI 3f5b8 $rbp: .cfa -16 + ^ .cfa: $rsp 16 +
STACK CFI 3f5bb .cfa: $rbp 16 +
STACK CFI 3f5ec .cfa: $rsp 8 +
STACK CFI INIT 3f5ed 1f .cfa: $rsp 8 + .ra: .cfa -8 + ^
STACK CFI 3f5ee $rbp: .cfa -16 + ^ .cfa: $rsp 16 +
STACK CFI 3f5f1 .cfa: $rbp 16 +
STACK CFI 3f60b .cfa: $rsp 8 +
STACK CFI INIT 3ee51 f .cfa: $rsp 8 + .ra: .cfa -8 + ^
STACK CFI 3ee52 $rbp: .cfa -16 + ^ .cfa: $rsp 16 +
STACK CFI 3ee55 .cfa: $rbp 16 +
STACK CFI 3ee5f .cfa: $rsp 8 +
STACK CFI INIT 3ee60 3f .cfa: $rsp 8 + .ra: .cfa -8 + ^
STACK CFI 3ee61 $rbp: .cfa -16 + ^ .cfa: $rsp 16 +
STACK CFI 3ee64 .cfa: $rbp 16 +
STACK CFI 3ee69 $rbx: .cfa -24 + ^
STACK CFI 3ee9e .cfa: $rsp 8 +
STACK CFI INIT 3f60c e .cfa: $rsp 8 + .ra: .cfa -8 + ^
STACK CFI 3f60d $rbp: .cfa -16 + ^ .cfa: $rsp 16 +
STACK CFI 3f610 .cfa: $rbp 16 +
STACK CFI 3f619 .cfa: $rsp 8 +
STACK CFI INIT 3ee9f ba .cfa: $rsp 8 + .ra: .cfa -8 + ^
STACK CFI 3eea0 $rbp: .cfa -16 + ^ .cfa: $rsp 16 +
STACK CFI 3eea3 .cfa: $rbp 16 +
STACK CFI 3eea8 $rbx: .cfa -24 + ^
STACK CFI 3ef58 .cfa: $rsp 8 +
STACK CFI INIT 3ef59 ae .cfa: $rsp 8 + .ra: .cfa -8 + ^
STACK CFI 3ef5a $rbp: .cfa -16 + ^ .cfa: $rsp 16 +
STACK CFI 3ef5d .cfa: $rbp 16 +
STACK CFI 3ef62 $rbx: .cfa -24 + ^
STACK CFI 3f006 .cfa: $rsp 8 +
STACK CFI INIT 3f007 f .cfa: $rsp 8 + .ra: .cfa -8 + ^
STACK CFI 3f008 $rbp: .cfa -16 + ^ .cfa: $rsp 16 +
STACK CFI 3f00b .cfa: $rbp 16 +
STACK CFI 3f015 .cfa: $rsp 8 +
STACK CFI INIT 3f016 3f .cfa: $rsp 8 + .ra: .cfa -8 + ^
STACK CFI 3f017 $rbp: .cfa -16 + ^ .cfa: $rsp 16 +
STACK CFI 3f01a .cfa: $rbp 16 +
STACK CFI 3f01f $rbx: .cfa -24 + ^
STACK CFI 3f054 .cfa: $rsp 8 +
STACK CFI INIT 3f055 23 .cfa: $rsp 8 + .ra: .cfa -8 + ^
STACK CFI 3f056 $rbp: .cfa -16 + ^ .cfa: $rsp 16 +
STACK CFI 3f059 .cfa: $rbp 16 +
STACK CFI 3f077 .cfa: $rsp 8 +
STACK CFI INIT 3f078 ae .cfa: $rsp 8 + .ra: .cfa -8 + ^
STACK CFI 3f079 $rbp: .cfa -16 + ^ .cfa: $rsp 16 +
STACK CFI 3f07c .cfa: $rbp 16 +
STACK CFI 3f081 $rbx: .cfa -24 + ^
STACK CFI 3f125 .cfa: $rsp 8 +
STACK CFI INIT 3f61a 1f .cfa: $rsp 8 + .ra: .cfa -8 + ^
STACK CFI 3f61b $rbp: .cfa -16 + ^ .cfa: $rsp 16 +
STACK CFI 3f61e .cfa: $rbp 16 +
STACK CFI 3f638 .cfa: $rsp 8 +
STACK CFI INIT 3f126 4c .cfa: $rsp 8 + .ra: .cfa -8 + ^
STACK CFI 3f127 $rbp: .cfa -16 + ^ .cfa: $rsp 16 +
STACK CFI 3f12a .cfa: $rbp 16 +
STACK CFI 3f12f $rbx: .cfa -24 + ^
STACK CFI 3f171 .cfa: $rsp 8 +
STACK CFI INIT 3f172 2a .cfa: $rsp 8 + .ra: .cfa -8 + ^
STACK CFI 3f173 $rbp: .cfa -16 + ^ .cfa: $rsp 16 +
STACK CFI 3f176 .cfa: $rbp 16 +
STACK CFI 3f19b .cfa: $rsp 8 +
STACK CFI INIT 3f63a 1a .cfa: $rsp 8 + .ra: .cfa -8 + ^
STACK CFI 3f63b $rbp: .cfa -16 + ^ .cfa: $rsp 16 +
STACK CFI 3f63e .cfa: $rbp 16 +
STACK CFI 3f653 .cfa: $rsp 8 +
STACK CFI INIT 3f19c 1a .cfa: $rsp 8 + .ra: .cfa -8 + ^
STACK CFI 3f19d $rbp: .cfa -16 + ^ .cfa: $rsp 16 +
STACK CFI 3f1a0 .cfa: $rbp 16 +
STACK CFI 3f1b5 .cfa: $rsp 8 +
STACK CFI INIT 3f1b6 4c .cfa: $rsp 8 + .ra: .cfa -8 + ^
STACK CFI 3f1b7 $rbp: .cfa -16 + ^ .cfa: $rsp 16 +
STACK CFI 3f1ba .cfa: $rbp 16 +
STACK CFI 3f1bf $rbx: .cfa -24 + ^
STACK CFI 3f201 .cfa: $rsp 8 +
STACK CFI INIT 3f202 1b .cfa: $rsp 8 + .ra: .cfa -8 + ^
STACK CFI 3f203 $rbp: .cfa -16 + ^ .cfa: $rsp 16 +
STACK CFI 3f206 .cfa: $rbp 16 +
STACK CFI 3f21c .cfa: $rsp 8 +
STACK CFI INIT 3f21d 4c .cfa: $rsp 8 + .ra: .cfa -8 + ^
STACK CFI 3f21e $rbp: .cfa -16 + ^ .cfa: $rsp 16 +
STACK CFI 3f221 .cfa: $rbp 16 +
STACK CFI 3f226 $rbx: .cfa -24 + ^
STACK CFI 3f268 .cfa: $rsp 8 +
STACK CFI INIT 3f269 2a .cfa: $rsp 8 + .ra: .cfa -8 + ^
STACK CFI 3f26a $rbp: .cfa -16 + ^ .cfa: $rsp 16 +
STACK CFI 3f26d .cfa: $rbp 16 +
STACK CFI 3f292 .cfa: $rsp 8 +
STACK CFI INIT 3f294 1a .cfa: $rsp 8 + .ra: .cfa -8 + ^
STACK CFI 3f295 $rbp: .cfa -16 + ^ .cfa: $rsp 16 +
STACK CFI 3f298 .cfa: $rbp 16 +
STACK CFI 3f2ad .cfa: $rsp 8 +
STACK CFI INIT 3f2ae 4c .cfa: $rsp 8 + .ra: .cfa -8 + ^
STACK CFI 3f2af $rbp: .cfa -16 + ^ .cfa: $rsp 16 +
STACK CFI 3f2b2 .cfa: $rbp 16 +
STACK CFI 3f2b7 $rbx: .cfa -24 + ^
STACK CFI 3f2f9 .cfa: $rsp 8 +
STACK CFI INIT 3f2fa 1b .cfa: $rsp 8 + .ra: .cfa -8 + ^
STACK CFI 3f2fb $rbp: .cfa -16 + ^ .cfa: $rsp 16 +
STACK CFI 3f2fe .cfa: $rbp 16 +
STACK CFI 3f314 .cfa: $rsp 8 +
STACK CFI INIT 3f316 1a .cfa: $rsp 8 + .ra: .cfa -8 + ^
STACK CFI 3f317 $rbp: .cfa -16 + ^ .cfa: $rsp 16 +
STACK CFI 3f31a .cfa: $rbp 16 +
STACK CFI 3f32f .cfa: $rsp 8 +
STACK CFI INIT 3f330 e .cfa: $rsp 8 + .ra: .cfa -8 + ^
STACK CFI 3f331 $rbp: .cfa -16 + ^ .cfa: $rsp 16 +
STACK CFI 3f334 .cfa: $rbp 16 +
STACK CFI 3f33d .cfa: $rsp 8 +
STACK CFI INIT 3f33e 1a .cfa: $rsp 8 + .ra: .cfa -8 + ^
STACK CFI 3f33f $rbp: .cfa -16 + ^ .cfa: $rsp 16 +
STACK CFI 3f342 .cfa: $rbp 16 +
STACK CFI 3f357 .cfa: $rsp 8 +
STACK CFI INIT 3f358 1a .cfa: $rsp 8 + .ra: .cfa -8 + ^
STACK CFI 3f359 $rbp: .cfa -16 + ^ .cfa: $rsp 16 +
STACK CFI 3f35c .cfa: $rbp 16 +
STACK CFI 3f371 .cfa: $rsp 8 +
STACK CFI INIT 3f372 e .cfa: $rsp 8 + .ra: .cfa -8 + ^
STACK CFI 3f373 $rbp: .cfa -16 + ^ .cfa: $rsp 16 +
STACK CFI 3f376 .cfa: $rbp 16 +
STACK CFI 3f37f .cfa: $rsp 8 +
STACK CFI INIT 3f380 1a .cfa: $rsp 8 + .ra: .cfa -8 + ^
STACK CFI 3f381 $rbp: .cfa -16 + ^ .cfa: $rsp 16 +
STACK CFI 3f384 .cfa: $rbp 16 +
STACK CFI 3f399 .cfa: $rsp 8 +
STACK CFI INIT 3f654 51 .cfa: $rsp 8 + .ra: .cfa -8 + ^
STACK CFI 3f655 $rbp: .cfa -16 + ^ .cfa: $rsp 16 +
STACK CFI 3f658 .cfa: $rbp 16 +
STACK CFI 3f6a4 .cfa: $rsp 8 +
STACK CFI INIT 3f6a6 26 .cfa: $rsp 8 + .ra: .cfa -8 + ^
STACK CFI 3f6a7 $rbp: .cfa -16 + ^ .cfa: $rsp 16 +
STACK CFI 3f6aa .cfa: $rbp 16 +
STACK CFI 3f6cb .cfa: $rsp 8 +
STACK CFI INIT 3f6cc 47 .cfa: $rsp 8 + .ra: .cfa -8 + ^
STACK CFI 3f6cd $rbp: .cfa -16 + ^ .cfa: $rsp 16 +
STACK CFI 3f6d0 .cfa: $rbp 16 +
STACK CFI 3f712 .cfa: $rsp 8 +
STACK CFI INIT 3f714 b .cfa: $rsp 8 + .ra: .cfa -8 + ^
STACK CFI 3f715 $rbp: .cfa -16 + ^ .cfa: $rsp 16 +
STACK CFI 3f718 .cfa: $rbp 16 +
STACK CFI 3f71e .cfa: $rsp 8 +
STACK CFI INIT 3f720 5e .cfa: $rsp 8 + .ra: .cfa -8 + ^
STACK CFI 3f721 $rbp: .cfa -16 + ^ .cfa: $rsp 16 +
STACK CFI 3f724 .cfa: $rbp 16 +
STACK CFI 3f77d .cfa: $rsp 8 +
STACK CFI INIT 3f77e 13 .cfa: $rsp 8 + .ra: .cfa -8 + ^
STACK CFI 3f77f $rbp: .cfa -16 + ^ .cfa: $rsp 16 +
STACK CFI 3f782 .cfa: $rbp 16 +
STACK CFI 3f790 .cfa: $rsp 8 +
STACK CFI INIT 3fd02 1d .cfa: $rsp 8 + .ra: .cfa -8 + ^
STACK CFI 3fd03 $rbp: .cfa -16 + ^ .cfa: $rsp 16 +
STACK CFI 3fd06 .cfa: $rbp 16 +
STACK CFI 3fd1e .cfa: $rsp 8 +
STACK CFI INIT 3fd20 1c .cfa: $rsp 8 + .ra: .cfa -8 + ^
STACK CFI 3fd21 $rbp: .cfa -16 + ^ .cfa: $rsp 16 +
STACK CFI 3fd24 .cfa: $rbp 16 +
STACK CFI 3fd3b .cfa: $rsp 8 +
STACK CFI INIT 3fd3c 34 .cfa: $rsp 8 + .ra: .cfa -8 + ^
STACK CFI 3fd3d $rbp: .cfa -16 + ^ .cfa: $rsp 16 +
STACK CFI 3fd40 .cfa: $rbp 16 +
STACK CFI 3fd6f .cfa: $rsp 8 +
STACK CFI INIT 3fd70 1d .cfa: $rsp 8 + .ra: .cfa -8 + ^
STACK CFI 3fd71 $rbp: .cfa -16 + ^ .cfa: $rsp 16 +
STACK CFI 3fd74 .cfa: $rbp 16 +
STACK CFI 3fd8c .cfa: $rsp 8 +
STACK CFI INIT 3fd8e 29 .cfa: $rsp 8 + .ra: .cfa -8 + ^
STACK CFI 3fd8f $rbp: .cfa -16 + ^ .cfa: $rsp 16 +
STACK CFI 3fd92 .cfa: $rbp 16 +
STACK CFI 3fdb6 .cfa: $rsp 8 +
STACK CFI INIT 3fdb8 1a .cfa: $rsp 8 + .ra: .cfa -8 + ^
STACK CFI 3fdb9 $rbp: .cfa -16 + ^ .cfa: $rsp 16 +
STACK CFI 3fdbc .cfa: $rbp 16 +
STACK CFI 3fdd1 .cfa: $rsp 8 +
STACK CFI INIT 3fdd2 19 .cfa: $rsp 8 + .ra: .cfa -8 + ^
STACK CFI 3fdd3 $rbp: .cfa -16 + ^ .cfa: $rsp 16 +
STACK CFI 3fdd6 .cfa: $rbp 16 +
STACK CFI 3fdea .cfa: $rsp 8 +
STACK CFI INIT 3fdec 34 .cfa: $rsp 8 + .ra: .cfa -8 + ^
STACK CFI 3fded $rbp: .cfa -16 + ^ .cfa: $rsp 16 +
STACK CFI 3fdf0 .cfa: $rbp 16 +
STACK CFI 3fe1f .cfa: $rsp 8 +
STACK CFI INIT 3fe20 24 .cfa: $rsp 8 + .ra: .cfa -8 + ^
STACK CFI 3fe21 $rbp: .cfa -16 + ^ .cfa: $rsp 16 +
STACK CFI 3fe24 .cfa: $rbp 16 +
STACK CFI 3fe43 .cfa: $rsp 8 +
STACK CFI INIT 3fe44 4f .cfa: $rsp 8 + .ra: .cfa -8 + ^
STACK CFI 3fe45 $rbp: .cfa -16 + ^ .cfa: $rsp 16 +
STACK CFI 3fe48 .cfa: $rbp 16 +
STACK CFI 3fe92 .cfa: $rsp 8 +
STACK CFI INIT 3fe94 19 .cfa: $rsp 8 + .ra: .cfa -8 + ^
STACK CFI 3fe95 $rbp: .cfa -16 + ^ .cfa: $rsp 16 +
STACK CFI 3fe98 .cfa: $rbp 16 +
STACK CFI 3feac .cfa: $rsp 8 +
STACK CFI INIT 3feae 3c .cfa: $rsp 8 + .ra: .cfa -8 + ^
STACK CFI 3feaf $rbp: .cfa -16 + ^ .cfa: $rsp 16 +
STACK CFI 3feb2 .cfa: $rbp 16 +
STACK CFI 3fee9 .cfa: $rsp 8 +
STACK CFI INIT 3feea 18 .cfa: $rsp 8 + .ra: .cfa -8 + ^
STACK CFI 3feeb $rbp: .cfa -16 + ^ .cfa: $rsp 16 +
STACK CFI 3feee .cfa: $rbp 16 +
STACK CFI 3ff01 .cfa: $rsp 8 +
STACK CFI INIT 3ff02 21 .cfa: $rsp 8 + .ra: .cfa -8 + ^
STACK CFI 3ff03 $rbp: .cfa -16 + ^ .cfa: $rsp 16 +
STACK CFI 3ff06 .cfa: $rbp 16 +
STACK CFI 3ff22 .cfa: $rsp 8 +
STACK CFI INIT 3ff24 38 .cfa: $rsp 8 + .ra: .cfa -8 + ^
STACK CFI 3ff25 $rbp: .cfa -16 + ^ .cfa: $rsp 16 +
STACK CFI 3ff28 .cfa: $rbp 16 +
STACK CFI 3ff5b .cfa: $rsp 8 +
STACK CFI INIT 3ff5c 38 .cfa: $rsp 8 + .ra: .cfa -8 + ^
STACK CFI 3ff5d $rbp: .cfa -16 + ^ .cfa: $rsp 16 +
STACK CFI 3ff60 .cfa: $rbp 16 +
STACK CFI 3ff93 .cfa: $rsp 8 +
STACK CFI INIT 3ff94 45 .cfa: $rsp 8 + .ra: .cfa -8 + ^
STACK CFI 3ff95 $rbp: .cfa -16 + ^ .cfa: $rsp 16 +
STACK CFI 3ff98 .cfa: $rbp 16 +
STACK CFI 3ff9d $rbx: .cfa -24 + ^
STACK CFI INIT 3ffda 33 .cfa: $rsp 8 + .ra: .cfa -8 + ^
STACK CFI 3ffdb $rbp: .cfa -16 + ^ .cfa: $rsp 16 +
STACK CFI 3ffde .cfa: $rbp 16 +
STACK CFI 3ffe3 $rbx: .cfa -24 + ^
STACK CFI 4000c .cfa: $rsp 8 +
STACK CFI INIT 4000e 3d .cfa: $rsp 8 + .ra: .cfa -8 + ^
STACK CFI 4000f $rbp: .cfa -16 + ^ .cfa: $rsp 16 +
STACK CFI 40012 .cfa: $rbp 16 +
STACK CFI 4004a .cfa: $rsp 8 +
STACK CFI INIT 4004c 23 .cfa: $rsp 8 + .ra: .cfa -8 + ^
STACK CFI 4004d $rbp: .cfa -16 + ^ .cfa: $rsp 16 +
STACK CFI 40050 .cfa: $rbp 16 +
STACK CFI 4006e .cfa: $rsp 8 +
STACK CFI INIT 40070 3d .cfa: $rsp 8 + .ra: .cfa -8 + ^
STACK CFI 40071 $rbp: .cfa -16 + ^ .cfa: $rsp 16 +
STACK CFI 40074 .cfa: $rbp 16 +
STACK CFI 400ac .cfa: $rsp 8 +
STACK CFI INIT 400ae 23 .cfa: $rsp 8 + .ra: .cfa -8 + ^
STACK CFI 400af $rbp: .cfa -16 + ^ .cfa: $rsp 16 +
STACK CFI 400b2 .cfa: $rbp 16 +
STACK CFI 400d0 .cfa: $rsp 8 +
STACK CFI INIT 400d2 3d .cfa: $rsp 8 + .ra: .cfa -8 + ^
STACK CFI 400d3 $rbp: .cfa -16 + ^ .cfa: $rsp 16 +
STACK CFI 400d6 .cfa: $rbp 16 +
STACK CFI 4010e .cfa: $rsp 8 +
STACK CFI INIT 40110 23 .cfa: $rsp 8 + .ra: .cfa -8 + ^
STACK CFI 40111 $rbp: .cfa -16 + ^ .cfa: $rsp 16 +
STACK CFI 40114 .cfa: $rbp 16 +
STACK CFI 40132 .cfa: $rsp 8 +
STACK CFI INIT 40134 3d .cfa: $rsp 8 + .ra: .cfa -8 + ^
STACK CFI 40135 $rbp: .cfa -16 + ^ .cfa: $rsp 16 +
STACK CFI 40138 .cfa: $rbp 16 +
STACK CFI 40170 .cfa: $rsp 8 +
STACK CFI INIT 40172 23 .cfa: $rsp 8 + .ra: .cfa -8 + ^
STACK CFI 40173 $rbp: .cfa -16 + ^ .cfa: $rsp 16 +
STACK CFI 40176 .cfa: $rbp 16 +
STACK CFI 40194 .cfa: $rsp 8 +
STACK CFI INIT 40196 3d .cfa: $rsp 8 + .ra: .cfa -8 + ^
STACK CFI 40197 $rbp: .cfa -16 + ^ .cfa: $rsp 16 +
STACK CFI 4019a .cfa: $rbp 16 +
STACK CFI 401d2 .cfa: $rsp 8 +
STACK CFI INIT 401d4 23 .cfa: $rsp 8 + .ra: .cfa -8 + ^
STACK CFI 401d5 $rbp: .cfa -16 + ^ .cfa: $rsp 16 +
STACK CFI 401d8 .cfa: $rbp 16 +
STACK CFI 401f6 .cfa: $rsp 8 +
STACK CFI INIT 401f8 3d .cfa: $rsp 8 + .ra: .cfa -8 + ^
STACK CFI 401f9 $rbp: .cfa -16 + ^ .cfa: $rsp 16 +
STACK CFI 401fc .cfa: $rbp 16 +
STACK CFI 40234 .cfa: $rsp 8 +
STACK CFI INIT 40236 23 .cfa: $rsp 8 + .ra: .cfa -8 + ^
STACK CFI 40237 $rbp: .cfa -16 + ^ .cfa: $rsp 16 +
STACK CFI 4023a .cfa: $rbp 16 +
STACK CFI 40258 .cfa: $rsp 8 +
STACK CFI INIT 4025a 3d .cfa: $rsp 8 + .ra: .cfa -8 + ^
STACK CFI 4025b $rbp: .cfa -16 + ^ .cfa: $rsp 16 +
STACK CFI 4025e .cfa: $rbp 16 +
STACK CFI 40296 .cfa: $rsp 8 +
STACK CFI INIT 40298 23 .cfa: $rsp 8 + .ra: .cfa -8 + ^
STACK CFI 40299 $rbp: .cfa -16 + ^ .cfa: $rsp 16 +
STACK CFI 4029c .cfa: $rbp 16 +
STACK CFI 402ba .cfa: $rsp 8 +
STACK CFI INIT 402bc 3d .cfa: $rsp 8 + .ra: .cfa -8 + ^
STACK CFI 402bd $rbp: .cfa -16 + ^ .cfa: $rsp 16 +
STACK CFI 402c0 .cfa: $rbp 16 +
STACK CFI 402f8 .cfa: $rsp 8 +
STACK CFI INIT 402fa 23 .cfa: $rsp 8 + .ra: .cfa -8 + ^
STACK CFI 402fb $rbp: .cfa -16 + ^ .cfa: $rsp 16 +
STACK CFI 402fe .cfa: $rbp 16 +
STACK CFI 4031c .cfa: $rsp 8 +
STACK CFI INIT 4031e 3d .cfa: $rsp 8 + .ra: .cfa -8 + ^
STACK CFI 4031f $rbp: .cfa -16 + ^ .cfa: $rsp 16 +
STACK CFI 40322 .cfa: $rbp 16 +
STACK CFI 4035a .cfa: $rsp 8 +
STACK CFI INIT 4035c 23 .cfa: $rsp 8 + .ra: .cfa -8 + ^
STACK CFI 4035d $rbp: .cfa -16 + ^ .cfa: $rsp 16 +
STACK CFI 40360 .cfa: $rbp 16 +
STACK CFI 4037e .cfa: $rsp 8 +
STACK CFI INIT 40380 3d .cfa: $rsp 8 + .ra: .cfa -8 + ^
STACK CFI 40381 $rbp: .cfa -16 + ^ .cfa: $rsp 16 +
STACK CFI 40384 .cfa: $rbp 16 +
STACK CFI 403bc .cfa: $rsp 8 +
STACK CFI INIT 403be 23 .cfa: $rsp 8 + .ra: .cfa -8 + ^
STACK CFI 403bf $rbp: .cfa -16 + ^ .cfa: $rsp 16 +
STACK CFI 403c2 .cfa: $rbp 16 +
STACK CFI 403e0 .cfa: $rsp 8 +
STACK CFI INIT 403e2 3d .cfa: $rsp 8 + .ra: .cfa -8 + ^
STACK CFI 403e3 $rbp: .cfa -16 + ^ .cfa: $rsp 16 +
STACK CFI 403e6 .cfa: $rbp 16 +
STACK CFI 4041e .cfa: $rsp 8 +
STACK CFI INIT 40420 23 .cfa: $rsp 8 + .ra: .cfa -8 + ^
STACK CFI 40421 $rbp: .cfa -16 + ^ .cfa: $rsp 16 +
STACK CFI 40424 .cfa: $rbp 16 +
STACK CFI 40442 .cfa: $rsp 8 +
STACK CFI INIT 40444 3d .cfa: $rsp 8 + .ra: .cfa -8 + ^
STACK CFI 40445 $rbp: .cfa -16 + ^ .cfa: $rsp 16 +
STACK CFI 40448 .cfa: $rbp 16 +
STACK CFI 40480 .cfa: $rsp 8 +
STACK CFI INIT 40482 23 .cfa: $rsp 8 + .ra: .cfa -8 + ^
STACK CFI 40483 $rbp: .cfa -16 + ^ .cfa: $rsp 16 +
STACK CFI 40486 .cfa: $rbp 16 +
STACK CFI 404a4 .cfa: $rsp 8 +
STACK CFI INIT 404a6 3d .cfa: $rsp 8 + .ra: .cfa -8 + ^
STACK CFI 404a7 $rbp: .cfa -16 + ^ .cfa: $rsp 16 +
STACK CFI 404aa .cfa: $rbp 16 +
STACK CFI 404e2 .cfa: $rsp 8 +
STACK CFI INIT 404e4 23 .cfa: $rsp 8 + .ra: .cfa -8 + ^
STACK CFI 404e5 $rbp: .cfa -16 + ^ .cfa: $rsp 16 +
STACK CFI 404e8 .cfa: $rbp 16 +
STACK CFI 40506 .cfa: $rsp 8 +
STACK CFI INIT 40508 3d .cfa: $rsp 8 + .ra: .cfa -8 + ^
STACK CFI 40509 $rbp: .cfa -16 + ^ .cfa: $rsp 16 +
STACK CFI 4050c .cfa: $rbp 16 +
STACK CFI 40544 .cfa: $rsp 8 +
STACK CFI INIT 40546 23 .cfa: $rsp 8 + .ra: .cfa -8 + ^
STACK CFI 40547 $rbp: .cfa -16 + ^ .cfa: $rsp 16 +
STACK CFI 4054a .cfa: $rbp 16 +
STACK CFI 40568 .cfa: $rsp 8 +
STACK CFI INIT 4056a 3d .cfa: $rsp 8 + .ra: .cfa -8 + ^
STACK CFI 4056b $rbp: .cfa -16 + ^ .cfa: $rsp 16 +
STACK CFI 4056e .cfa: $rbp 16 +
STACK CFI 405a6 .cfa: $rsp 8 +
STACK CFI INIT 405a8 23 .cfa: $rsp 8 + .ra: .cfa -8 + ^
STACK CFI 405a9 $rbp: .cfa -16 + ^ .cfa: $rsp 16 +
STACK CFI 405ac .cfa: $rbp 16 +
STACK CFI 405ca .cfa: $rsp 8 +
STACK CFI INIT 405cc 3d .cfa: $rsp 8 + .ra: .cfa -8 + ^
STACK CFI 405cd $rbp: .cfa -16 + ^ .cfa: $rsp 16 +
STACK CFI 405d0 .cfa: $rbp 16 +
STACK CFI 40608 .cfa: $rsp 8 +
STACK CFI INIT 4060a 23 .cfa: $rsp 8 + .ra: .cfa -8 + ^
STACK CFI 4060b $rbp: .cfa -16 + ^ .cfa: $rsp 16 +
STACK CFI 4060e .cfa: $rbp 16 +
STACK CFI 4062c .cfa: $rsp 8 +
STACK CFI INIT 4062e ea6 .cfa: $rsp 8 + .ra: .cfa -8 + ^
STACK CFI 4062f $rbp: .cfa -16 + ^ .cfa: $rsp 16 +
STACK CFI 40632 .cfa: $rbp 16 +
STACK CFI 4063c $r12: .cfa -24 + ^ $rbx: .cfa -32 + ^
STACK CFI 414d3 .cfa: $rsp 8 +
STACK CFI INIT 414d4 450 .cfa: $rsp 8 + .ra: .cfa -8 + ^
STACK CFI 414d5 $rbp: .cfa -16 + ^ .cfa: $rsp 16 +
STACK CFI 414d8 .cfa: $rbp 16 +
STACK CFI 414e0 $rbx: .cfa -24 + ^
STACK CFI 41923 .cfa: $rsp 8 +
STACK CFI INIT 3f792 11c .cfa: $rsp 8 + .ra: .cfa -8 + ^
STACK CFI 3f793 $rbp: .cfa -16 + ^ .cfa: $rsp 16 +
STACK CFI 3f796 .cfa: $rbp 16 +
STACK CFI 3f79b $rbx: .cfa -24 + ^
STACK CFI 3f8ad .cfa: $rsp 8 +
STACK CFI INIT 3f8ae 87 .cfa: $rsp 8 + .ra: .cfa -8 + ^
STACK CFI 3f8af $rbp: .cfa -16 + ^ .cfa: $rsp 16 +
STACK CFI 3f8b2 .cfa: $rbp 16 +
STACK CFI 3f934 .cfa: $rsp 8 +
STACK CFI INIT 3f935 9 .cfa: $rsp 8 + .ra: .cfa -8 + ^
STACK CFI INIT 3f93e 26 .cfa: $rsp 8 + .ra: .cfa -8 + ^
STACK CFI 3f93f $rbp: .cfa -16 + ^ .cfa: $rsp 16 +
STACK CFI 3f942 .cfa: $rbp 16 +
STACK CFI 3f963 .cfa: $rsp 8 +
STACK CFI INIT 3f964 6 .cfa: $rsp 8 + .ra: .cfa -8 + ^
STACK CFI INIT 41924 2d .cfa: $rsp 8 + .ra: .cfa -8 + ^
STACK CFI 41925 $rbp: .cfa -16 + ^ .cfa: $rsp 16 +
STACK CFI 41928 .cfa: $rbp 16 +
STACK CFI 41950 .cfa: $rsp 8 +
STACK CFI INIT 41952 2d .cfa: $rsp 8 + .ra: .cfa -8 + ^
STACK CFI 41953 $rbp: .cfa -16 + ^ .cfa: $rsp 16 +
STACK CFI 41956 .cfa: $rbp 16 +
STACK CFI 4197e .cfa: $rsp 8 +
STACK CFI INIT 3f96a 8a .cfa: $rsp 8 + .ra: .cfa -8 + ^
STACK CFI 3f96b $rbp: .cfa -16 + ^ .cfa: $rsp 16 +
STACK CFI 3f96e .cfa: $rbp 16 +
STACK CFI 3f973 $rbx: .cfa -24 + ^
STACK CFI 3f9f3 .cfa: $rsp 8 +
STACK CFI INIT 3f9f4 5f .cfa: $rsp 8 + .ra: .cfa -8 + ^
STACK CFI 3f9f5 $rbp: .cfa -16 + ^ .cfa: $rsp 16 +
STACK CFI 3f9f8 .cfa: $rbp 16 +
STACK CFI 3fa52 .cfa: $rsp 8 +
STACK CFI INIT 3fa54 17d .cfa: $rsp 8 + .ra: .cfa -8 + ^
STACK CFI 3fa55 $rbp: .cfa -16 + ^ .cfa: $rsp 16 +
STACK CFI 3fa58 .cfa: $rbp 16 +
STACK CFI 3fa60 $rbx: .cfa -24 + ^
STACK CFI 3fbd0 .cfa: $rsp 8 +
STACK CFI INIT 3fbd2 10f .cfa: $rsp 8 + .ra: .cfa -8 + ^
STACK CFI 3fbd3 $rbp: .cfa -16 + ^ .cfa: $rsp 16 +
STACK CFI 3fbd6 .cfa: $rbp 16 +
STACK CFI 3fbdf $r12: .cfa -32 + ^ $r13: .cfa -24 + ^ $rbx: .cfa -40 + ^
STACK CFI 3fce0 .cfa: $rsp 8 +
STACK CFI INIT 3fce2 1f .cfa: $rsp 8 + .ra: .cfa -8 + ^
STACK CFI 3fce3 $rbp: .cfa -16 + ^ .cfa: $rsp 16 +
STACK CFI 3fce6 .cfa: $rbp 16 +
STACK CFI 3fd00 .cfa: $rsp 8 +
STACK CFI INIT 4197f 25 .cfa: $rsp 8 + .ra: .cfa -8 + ^
STACK CFI 41980 $rbp: .cfa -16 + ^ .cfa: $rsp 16 +
STACK CFI 41983 .cfa: $rbp 16 +
STACK CFI 419a3 .cfa: $rsp 8 +
STACK CFI INIT 419a4 1a .cfa: $rsp 8 + .ra: .cfa -8 + ^
STACK CFI 419a5 $rbp: .cfa -16 + ^ .cfa: $rsp 16 +
STACK CFI 419a8 .cfa: $rbp 16 +
STACK CFI 419bd .cfa: $rsp 8 +
STACK CFI INIT 419be 25 .cfa: $rsp 8 + .ra: .cfa -8 + ^
STACK CFI 419bf $rbp: .cfa -16 + ^ .cfa: $rsp 16 +
STACK CFI 419c2 .cfa: $rbp 16 +
STACK CFI 419e2 .cfa: $rsp 8 +
STACK CFI INIT 419e4 e .cfa: $rsp 8 + .ra: .cfa -8 + ^
STACK CFI 419e5 $rbp: .cfa -16 + ^ .cfa: $rsp 16 +
STACK CFI 419e8 .cfa: $rbp 16 +
STACK CFI 419f1 .cfa: $rsp 8 +
STACK CFI INIT 419f2 e .cfa: $rsp 8 + .ra: .cfa -8 + ^
STACK CFI 419f3 $rbp: .cfa -16 + ^ .cfa: $rsp 16 +
STACK CFI 419f6 .cfa: $rbp 16 +
STACK CFI 419ff .cfa: $rsp 8 +
STACK CFI INIT 41a00 e .cfa: $rsp 8 + .ra: .cfa -8 + ^
STACK CFI 41a01 $rbp: .cfa -16 + ^ .cfa: $rsp 16 +
STACK CFI 41a04 .cfa: $rbp 16 +
STACK CFI 41a0d .cfa: $rsp 8 +
STACK CFI INIT 41a0e e .cfa: $rsp 8 + .ra: .cfa -8 + ^
STACK CFI 41a0f $rbp: .cfa -16 + ^ .cfa: $rsp 16 +
STACK CFI 41a12 .cfa: $rbp 16 +
STACK CFI 41a1b .cfa: $rsp 8 +
STACK CFI INIT 41a1c e .cfa: $rsp 8 + .ra: .cfa -8 + ^
STACK CFI 41a1d $rbp: .cfa -16 + ^ .cfa: $rsp 16 +
STACK CFI 41a20 .cfa: $rbp 16 +
STACK CFI 41a29 .cfa: $rsp 8 +
STACK CFI INIT 41a2a e .cfa: $rsp 8 + .ra: .cfa -8 + ^
STACK CFI 41a2b $rbp: .cfa -16 + ^ .cfa: $rsp 16 +
STACK CFI 41a2e .cfa: $rbp 16 +
STACK CFI 41a37 .cfa: $rsp 8 +
STACK CFI INIT 41a38 e .cfa: $rsp 8 + .ra: .cfa -8 + ^
STACK CFI 41a39 $rbp: .cfa -16 + ^ .cfa: $rsp 16 +
STACK CFI 41a3c .cfa: $rbp 16 +
STACK CFI 41a45 .cfa: $rsp 8 +
STACK CFI INIT 41a46 e .cfa: $rsp 8 + .ra: .cfa -8 + ^
STACK CFI 41a47 $rbp: .cfa -16 + ^ .cfa: $rsp 16 +
STACK CFI 41a4a .cfa: $rbp 16 +
STACK CFI 41a53 .cfa: $rsp 8 +
STACK CFI INIT 41a54 e .cfa: $rsp 8 + .ra: .cfa -8 + ^
STACK CFI 41a55 $rbp: .cfa -16 + ^ .cfa: $rsp 16 +
STACK CFI 41a58 .cfa: $rbp 16 +
STACK CFI 41a61 .cfa: $rsp 8 +
STACK CFI INIT 41a62 e .cfa: $rsp 8 + .ra: .cfa -8 + ^
STACK CFI 41a63 $rbp: .cfa -16 + ^ .cfa: $rsp 16 +
STACK CFI 41a66 .cfa: $rbp 16 +
STACK CFI 41a6f .cfa: $rsp 8 +
STACK CFI INIT 41a70 e .cfa: $rsp 8 + .ra: .cfa -8 + ^
STACK CFI 41a71 $rbp: .cfa -16 + ^ .cfa: $rsp 16 +
STACK CFI 41a74 .cfa: $rbp 16 +
STACK CFI 41a7d .cfa: $rsp 8 +
STACK CFI INIT 41a7e 97 .cfa: $rsp 8 + .ra: .cfa -8 + ^
STACK CFI 41a7f $rbp: .cfa -16 + ^ .cfa: $rsp 16 +
STACK CFI 41a82 .cfa: $rbp 16 +
STACK CFI 41a87 $rbx: .cfa -24 + ^
STACK CFI 41b14 .cfa: $rsp 8 +
STACK CFI INIT 41b16 27 .cfa: $rsp 8 + .ra: .cfa -8 + ^
STACK CFI 41b17 $rbp: .cfa -16 + ^ .cfa: $rsp 16 +
STACK CFI 41b1a .cfa: $rbp 16 +
STACK CFI 41b3c .cfa: $rsp 8 +
STACK CFI INIT 41b3e 48 .cfa: $rsp 8 + .ra: .cfa -8 + ^
STACK CFI 41b3f $rbp: .cfa -16 + ^ .cfa: $rsp 16 +
STACK CFI 41b42 .cfa: $rbp 16 +
STACK CFI 41b85 .cfa: $rsp 8 +
STACK CFI INIT 41b86 6a .cfa: $rsp 8 + .ra: .cfa -8 + ^
STACK CFI 41b87 $rbp: .cfa -16 + ^ .cfa: $rsp 16 +
STACK CFI 41b8a .cfa: $rbp 16 +
STACK CFI 41b91 $r12: .cfa -24 + ^ $rbx: .cfa -32 + ^
STACK CFI 41bef .cfa: $rsp 8 +
STACK CFI INIT 41bf0 34 .cfa: $rsp 8 + .ra: .cfa -8 + ^
STACK CFI 41bf1 $rbp: .cfa -16 + ^ .cfa: $rsp 16 +
STACK CFI 41bf4 .cfa: $rbp 16 +
STACK CFI 41c23 .cfa: $rsp 8 +
STACK CFI INIT 41c24 1d .cfa: $rsp 8 + .ra: .cfa -8 + ^
STACK CFI 41c25 $rbp: .cfa -16 + ^ .cfa: $rsp 16 +
STACK CFI 41c28 .cfa: $rbp 16 +
STACK CFI 41c40 .cfa: $rsp 8 +
STACK CFI INIT 41c42 97 .cfa: $rsp 8 + .ra: .cfa -8 + ^
STACK CFI 41c43 $rbp: .cfa -16 + ^ .cfa: $rsp 16 +
STACK CFI 41c46 .cfa: $rbp 16 +
STACK CFI 41c4b $rbx: .cfa -24 + ^
STACK CFI 41cd8 .cfa: $rsp 8 +
STACK CFI INIT 41cda 5c .cfa: $rsp 8 + .ra: .cfa -8 + ^
STACK CFI 41cdb $rbp: .cfa -16 + ^ .cfa: $rsp 16 +
STACK CFI 41cde .cfa: $rbp 16 +
STACK CFI 41d35 .cfa: $rsp 8 +
STACK CFI INIT 41d36 1d .cfa: $rsp 8 + .ra: .cfa -8 + ^
STACK CFI 41d37 $rbp: .cfa -16 + ^ .cfa: $rsp 16 +
STACK CFI 41d3a .cfa: $rbp 16 +
STACK CFI 41d52 .cfa: $rsp 8 +
STACK CFI INIT 41d53 e .cfa: $rsp 8 + .ra: .cfa -8 + ^
STACK CFI 41d54 $rbp: .cfa -16 + ^ .cfa: $rsp 16 +
STACK CFI 41d57 .cfa: $rbp 16 +
STACK CFI 41d60 .cfa: $rsp 8 +
STACK CFI INIT 41d61 6a .cfa: $rsp 8 + .ra: .cfa -8 + ^
STACK CFI 41d62 $rbp: .cfa -16 + ^ .cfa: $rsp 16 +
STACK CFI 41d65 .cfa: $rbp 16 +
STACK CFI 41dca .cfa: $rsp 8 +
STACK CFI INIT 41dcb e .cfa: $rsp 8 + .ra: .cfa -8 + ^
STACK CFI 41dcc $rbp: .cfa -16 + ^ .cfa: $rsp 16 +
STACK CFI 41dcf .cfa: $rbp 16 +
STACK CFI 41dd8 .cfa: $rsp 8 +
STACK CFI INIT 41dd9 52 .cfa: $rsp 8 + .ra: .cfa -8 + ^
STACK CFI 41dda $rbp: .cfa -16 + ^ .cfa: $rsp 16 +
STACK CFI 41ddd .cfa: $rbp 16 +
STACK CFI 41e2a .cfa: $rsp 8 +
STACK CFI INIT 41e2b e .cfa: $rsp 8 + .ra: .cfa -8 + ^
STACK CFI 41e2c $rbp: .cfa -16 + ^ .cfa: $rsp 16 +
STACK CFI 41e2f .cfa: $rbp 16 +
STACK CFI 41e38 .cfa: $rsp 8 +
STACK CFI INIT 41e39 52 .cfa: $rsp 8 + .ra: .cfa -8 + ^
STACK CFI 41e3a $rbp: .cfa -16 + ^ .cfa: $rsp 16 +
STACK CFI 41e3d .cfa: $rbp 16 +
STACK CFI 41e8a .cfa: $rsp 8 +
STACK CFI INIT 41e8c 41 .cfa: $rsp 8 + .ra: .cfa -8 + ^
STACK CFI 41e8d $rbp: .cfa -16 + ^ .cfa: $rsp 16 +
STACK CFI 41e90 .cfa: $rbp 16 +
STACK CFI 41ecc .cfa: $rsp 8 +
STACK CFI INIT 41ece 26 .cfa: $rsp 8 + .ra: .cfa -8 + ^
STACK CFI 41ecf $rbp: .cfa -16 + ^ .cfa: $rsp 16 +
STACK CFI 41ed2 .cfa: $rbp 16 +
STACK CFI 41ef3 .cfa: $rsp 8 +
STACK CFI INIT 41ef4 96 .cfa: $rsp 8 + .ra: .cfa -8 + ^
STACK CFI 41ef5 $rbp: .cfa -16 + ^ .cfa: $rsp 16 +
STACK CFI 41ef8 .cfa: $rbp 16 +
STACK CFI 41f89 .cfa: $rsp 8 +
STACK CFI INIT 41f8a 48 .cfa: $rsp 8 + .ra: .cfa -8 + ^
STACK CFI 41f8b $rbp: .cfa -16 + ^ .cfa: $rsp 16 +
STACK CFI 41f8e .cfa: $rbp 16 +
STACK CFI 41fd1 .cfa: $rsp 8 +
STACK CFI INIT 41fd2 50 .cfa: $rsp 8 + .ra: .cfa -8 + ^
STACK CFI 41fd3 $rbp: .cfa -16 + ^ .cfa: $rsp 16 +
STACK CFI 41fd6 .cfa: $rbp 16 +
STACK CFI 42021 .cfa: $rsp 8 +
STACK CFI INIT 42022 84 .cfa: $rsp 8 + .ra: .cfa -8 + ^
STACK CFI 42023 $rbp: .cfa -16 + ^ .cfa: $rsp 16 +
STACK CFI 42026 .cfa: $rbp 16 +
STACK CFI 420a5 .cfa: $rsp 8 +
STACK CFI INIT 420a6 11 .cfa: $rsp 8 + .ra: .cfa -8 + ^
STACK CFI 420a7 $rbp: .cfa -16 + ^ .cfa: $rsp 16 +
STACK CFI 420aa .cfa: $rbp 16 +
STACK CFI 420b6 .cfa: $rsp 8 +
STACK CFI INIT 43680 52 .cfa: $rsp 8 + .ra: .cfa -8 + ^
STACK CFI 43681 $rbp: .cfa -16 + ^ .cfa: $rsp 16 +
STACK CFI 43684 .cfa: $rbp 16 +
STACK CFI 436d1 .cfa: $rsp 8 +
STACK CFI INIT 436d2 38 .cfa: $rsp 8 + .ra: .cfa -8 + ^
STACK CFI 436d3 $rbp: .cfa -16 + ^ .cfa: $rsp 16 +
STACK CFI 436d6 .cfa: $rbp 16 +
STACK CFI 43709 .cfa: $rsp 8 +
STACK CFI INIT 4370a 17 .cfa: $rsp 8 + .ra: .cfa -8 + ^
STACK CFI 4370b $rbp: .cfa -16 + ^ .cfa: $rsp 16 +
STACK CFI 4370e .cfa: $rbp 16 +
STACK CFI 43720 .cfa: $rsp 8 +
STACK CFI INIT 43722 10 .cfa: $rsp 8 + .ra: .cfa -8 + ^
STACK CFI 43723 $rbp: .cfa -16 + ^ .cfa: $rsp 16 +
STACK CFI 43726 .cfa: $rbp 16 +
STACK CFI 43731 .cfa: $rsp 8 +
STACK CFI INIT 43732 26 .cfa: $rsp 8 + .ra: .cfa -8 + ^
STACK CFI 43733 $rbp: .cfa -16 + ^ .cfa: $rsp 16 +
STACK CFI 43736 .cfa: $rbp 16 +
STACK CFI 43757 .cfa: $rsp 8 +
STACK CFI INIT 43758 35 .cfa: $rsp 8 + .ra: .cfa -8 + ^
STACK CFI 43759 $rbp: .cfa -16 + ^ .cfa: $rsp 16 +
STACK CFI 4375c .cfa: $rbp 16 +
STACK CFI 4378c .cfa: $rsp 8 +
STACK CFI INIT 4378d d .cfa: $rsp 8 + .ra: .cfa -8 + ^
STACK CFI 4378e $rbp: .cfa -16 + ^ .cfa: $rsp 16 +
STACK CFI 43791 .cfa: $rbp 16 +
STACK CFI 43799 .cfa: $rsp 8 +
STACK CFI INIT 4379a 1e .cfa: $rsp 8 + .ra: .cfa -8 + ^
STACK CFI 4379b $rbp: .cfa -16 + ^ .cfa: $rsp 16 +
STACK CFI 4379e .cfa: $rbp 16 +
STACK CFI 437b7 .cfa: $rsp 8 +
STACK CFI INIT 437b8 22 .cfa: $rsp 8 + .ra: .cfa -8 + ^
STACK CFI 437b9 $rbp: .cfa -16 + ^ .cfa: $rsp 16 +
STACK CFI 437bc .cfa: $rbp 16 +
STACK CFI 437d9 .cfa: $rsp 8 +
STACK CFI INIT 437da 34 .cfa: $rsp 8 + .ra: .cfa -8 + ^
STACK CFI 437db $rbp: .cfa -16 + ^ .cfa: $rsp 16 +
STACK CFI 437de .cfa: $rbp 16 +
STACK CFI 4380d .cfa: $rsp 8 +
STACK CFI INIT 4380e 28 .cfa: $rsp 8 + .ra: .cfa -8 + ^
STACK CFI 4380f $rbp: .cfa -16 + ^ .cfa: $rsp 16 +
STACK CFI 43812 .cfa: $rbp 16 +
STACK CFI 43835 .cfa: $rsp 8 +
STACK CFI INIT 43836 28 .cfa: $rsp 8 + .ra: .cfa -8 + ^
STACK CFI 43837 $rbp: .cfa -16 + ^ .cfa: $rsp 16 +
STACK CFI 4383a .cfa: $rbp 16 +
STACK CFI 4385d .cfa: $rsp 8 +
STACK CFI INIT 4385e 14 .cfa: $rsp 8 + .ra: .cfa -8 + ^
STACK CFI 4385f $rbp: .cfa -16 + ^ .cfa: $rsp 16 +
STACK CFI 43862 .cfa: $rbp 16 +
STACK CFI 43871 .cfa: $rsp 8 +
STACK CFI INIT 43872 49 .cfa: $rsp 8 + .ra: .cfa -8 + ^
STACK CFI 43873 $rbp: .cfa -16 + ^ .cfa: $rsp 16 +
STACK CFI 43876 .cfa: $rbp 16 +
STACK CFI 438ba .cfa: $rsp 8 +
STACK CFI INIT 438bc 47 .cfa: $rsp 8 + .ra: .cfa -8 + ^
STACK CFI 438bd $rbp: .cfa -16 + ^ .cfa: $rsp 16 +
STACK CFI 438c0 .cfa: $rbp 16 +
STACK CFI 43902 .cfa: $rsp 8 +
STACK CFI INIT 43904 14 .cfa: $rsp 8 + .ra: .cfa -8 + ^
STACK CFI 43905 $rbp: .cfa -16 + ^ .cfa: $rsp 16 +
STACK CFI 43908 .cfa: $rbp 16 +
STACK CFI 43917 .cfa: $rsp 8 +
STACK CFI INIT 43918 1d .cfa: $rsp 8 + .ra: .cfa -8 + ^
STACK CFI 43919 $rbp: .cfa -16 + ^ .cfa: $rsp 16 +
STACK CFI 4391c .cfa: $rbp 16 +
STACK CFI 43934 .cfa: $rsp 8 +
STACK CFI INIT 43936 1e .cfa: $rsp 8 + .ra: .cfa -8 + ^
STACK CFI 43937 $rbp: .cfa -16 + ^ .cfa: $rsp 16 +
STACK CFI 4393a .cfa: $rbp 16 +
STACK CFI 43953 .cfa: $rsp 8 +
STACK CFI INIT 43954 28 .cfa: $rsp 8 + .ra: .cfa -8 + ^
STACK CFI 43955 $rbp: .cfa -16 + ^ .cfa: $rsp 16 +
STACK CFI 43958 .cfa: $rbp 16 +
STACK CFI 4397b .cfa: $rsp 8 +
STACK CFI INIT 4397c 53 .cfa: $rsp 8 + .ra: .cfa -8 + ^
STACK CFI 4397d $rbp: .cfa -16 + ^ .cfa: $rsp 16 +
STACK CFI 43980 .cfa: $rbp 16 +
STACK CFI 43985 $rbx: .cfa -24 + ^
STACK CFI 439ce .cfa: $rsp 8 +
STACK CFI INIT 439d0 53 .cfa: $rsp 8 + .ra: .cfa -8 + ^
STACK CFI 439d1 $rbp: .cfa -16 + ^ .cfa: $rsp 16 +
STACK CFI 439d4 .cfa: $rbp 16 +
STACK CFI 439d9 $rbx: .cfa -24 + ^
STACK CFI 43a22 .cfa: $rsp 8 +
STACK CFI INIT 43a24 19 .cfa: $rsp 8 + .ra: .cfa -8 + ^
STACK CFI 43a25 $rbp: .cfa -16 + ^ .cfa: $rsp 16 +
STACK CFI 43a28 .cfa: $rbp 16 +
STACK CFI 43a3c .cfa: $rsp 8 +
STACK CFI INIT 43a3e 35 .cfa: $rsp 8 + .ra: .cfa -8 + ^
STACK CFI 43a3f $rbp: .cfa -16 + ^ .cfa: $rsp 16 +
STACK CFI 43a42 .cfa: $rbp 16 +
STACK CFI 43a72 .cfa: $rsp 8 +
STACK CFI INIT 43a74 34 .cfa: $rsp 8 + .ra: .cfa -8 + ^
STACK CFI 43a75 $rbp: .cfa -16 + ^ .cfa: $rsp 16 +
STACK CFI 43a78 .cfa: $rbp 16 +
STACK CFI 43aa7 .cfa: $rsp 8 +
STACK CFI INIT 43aa8 7d .cfa: $rsp 8 + .ra: .cfa -8 + ^
STACK CFI 43aa9 $rbp: .cfa -16 + ^ .cfa: $rsp 16 +
STACK CFI 43aac .cfa: $rbp 16 +
STACK CFI 43ab1 $rbx: .cfa -24 + ^
STACK CFI 43b24 .cfa: $rsp 8 +
STACK CFI INIT 43b26 53 .cfa: $rsp 8 + .ra: .cfa -8 + ^
STACK CFI 43b27 $rbp: .cfa -16 + ^ .cfa: $rsp 16 +
STACK CFI 43b2a .cfa: $rbp 16 +
STACK CFI 43b2f $rbx: .cfa -24 + ^
STACK CFI 43b78 .cfa: $rsp 8 +
STACK CFI INIT 43b7a 15 .cfa: $rsp 8 + .ra: .cfa -8 + ^
STACK CFI 43b7b $rbp: .cfa -16 + ^ .cfa: $rsp 16 +
STACK CFI 43b7e .cfa: $rbp 16 +
STACK CFI 43b8e .cfa: $rsp 8 +
STACK CFI INIT 43b90 12 .cfa: $rsp 8 + .ra: .cfa -8 + ^
STACK CFI 43b91 $rbp: .cfa -16 + ^ .cfa: $rsp 16 +
STACK CFI 43b94 .cfa: $rbp 16 +
STACK CFI 43ba1 .cfa: $rsp 8 +
STACK CFI INIT 43ba2 24 .cfa: $rsp 8 + .ra: .cfa -8 + ^
STACK CFI 43ba3 $rbp: .cfa -16 + ^ .cfa: $rsp 16 +
STACK CFI 43ba6 .cfa: $rbp 16 +
STACK CFI 43bc5 .cfa: $rsp 8 +
STACK CFI INIT 43bc6 10 .cfa: $rsp 8 + .ra: .cfa -8 + ^
STACK CFI 43bc7 $rbp: .cfa -16 + ^ .cfa: $rsp 16 +
STACK CFI 43bca .cfa: $rbp 16 +
STACK CFI 43bd5 .cfa: $rsp 8 +
STACK CFI INIT 43bd6 11 .cfa: $rsp 8 + .ra: .cfa -8 + ^
STACK CFI 43bd7 $rbp: .cfa -16 + ^ .cfa: $rsp 16 +
STACK CFI 43bda .cfa: $rbp 16 +
STACK CFI 43be6 .cfa: $rsp 8 +
STACK CFI INIT 43be8 10 .cfa: $rsp 8 + .ra: .cfa -8 + ^
STACK CFI 43be9 $rbp: .cfa -16 + ^ .cfa: $rsp 16 +
STACK CFI 43bec .cfa: $rbp 16 +
STACK CFI 43bf7 .cfa: $rsp 8 +
STACK CFI INIT 43bf8 11 .cfa: $rsp 8 + .ra: .cfa -8 + ^
STACK CFI 43bf9 $rbp: .cfa -16 + ^ .cfa: $rsp 16 +
STACK CFI 43bfc .cfa: $rbp 16 +
STACK CFI 43c08 .cfa: $rsp 8 +
STACK CFI INIT 43c0a 11 .cfa: $rsp 8 + .ra: .cfa -8 + ^
STACK CFI 43c0b $rbp: .cfa -16 + ^ .cfa: $rsp 16 +
STACK CFI 43c0e .cfa: $rbp 16 +
STACK CFI 43c1a .cfa: $rsp 8 +
STACK CFI INIT 43c1c 11 .cfa: $rsp 8 + .ra: .cfa -8 + ^
STACK CFI 43c1d $rbp: .cfa -16 + ^ .cfa: $rsp 16 +
STACK CFI 43c20 .cfa: $rbp 16 +
STACK CFI 43c2c .cfa: $rsp 8 +
STACK CFI INIT 43c2e 34 .cfa: $rsp 8 + .ra: .cfa -8 + ^
STACK CFI 43c2f $rbp: .cfa -16 + ^ .cfa: $rsp 16 +
STACK CFI 43c32 .cfa: $rbp 16 +
STACK CFI 43c61 .cfa: $rsp 8 +
STACK CFI INIT 43c62 36 .cfa: $rsp 8 + .ra: .cfa -8 + ^
STACK CFI 43c63 $rbp: .cfa -16 + ^ .cfa: $rsp 16 +
STACK CFI 43c66 .cfa: $rbp 16 +
STACK CFI 43c97 .cfa: $rsp 8 +
STACK CFI INIT 43c98 4b .cfa: $rsp 8 + .ra: .cfa -8 + ^
STACK CFI 43c99 $rbp: .cfa -16 + ^ .cfa: $rsp 16 +
STACK CFI 43c9c .cfa: $rbp 16 +
STACK CFI 43ce2 .cfa: $rsp 8 +
STACK CFI INIT 43ce4 3e .cfa: $rsp 8 + .ra: .cfa -8 + ^
STACK CFI 43ce5 $rbp: .cfa -16 + ^ .cfa: $rsp 16 +
STACK CFI 43ce8 .cfa: $rbp 16 +
STACK CFI 43d21 .cfa: $rsp 8 +
STACK CFI INIT 43d22 10 .cfa: $rsp 8 + .ra: .cfa -8 + ^
STACK CFI 43d23 $rbp: .cfa -16 + ^ .cfa: $rsp 16 +
STACK CFI 43d26 .cfa: $rbp 16 +
STACK CFI 43d31 .cfa: $rsp 8 +
STACK CFI INIT 43d32 36 .cfa: $rsp 8 + .ra: .cfa -8 + ^
STACK CFI 43d33 $rbp: .cfa -16 + ^ .cfa: $rsp 16 +
STACK CFI 43d36 .cfa: $rbp 16 +
STACK CFI 43d67 .cfa: $rsp 8 +
STACK CFI INIT 43d68 22 .cfa: $rsp 8 + .ra: .cfa -8 + ^
STACK CFI 43d69 $rbp: .cfa -16 + ^ .cfa: $rsp 16 +
STACK CFI 43d6c .cfa: $rbp 16 +
STACK CFI 43d89 .cfa: $rsp 8 +
STACK CFI INIT 43d8a 16 .cfa: $rsp 8 + .ra: .cfa -8 + ^
STACK CFI 43d8b $rbp: .cfa -16 + ^ .cfa: $rsp 16 +
STACK CFI 43d8e .cfa: $rbp 16 +
STACK CFI 43d9f .cfa: $rsp 8 +
STACK CFI INIT 420b8 d9 .cfa: $rsp 8 + .ra: .cfa -8 + ^
STACK CFI 420b9 $rbp: .cfa -16 + ^ .cfa: $rsp 16 +
STACK CFI 420bc .cfa: $rbp 16 +
STACK CFI 420c1 $rbx: .cfa -24 + ^
STACK CFI 42190 .cfa: $rsp 8 +
STACK CFI INIT 42192 546 .cfa: $rsp 8 + .ra: .cfa -8 + ^
STACK CFI 42193 $rbp: .cfa -16 + ^ .cfa: $rsp 16 +
STACK CFI 42196 .cfa: $rbp 16 +
STACK CFI 421a6 $r12: .cfa -48 + ^ $r13: .cfa -40 + ^ $r14: .cfa -32 + ^ $r15: .cfa -24 + ^ $rbx: .cfa -56 + ^
STACK CFI 426d7 .cfa: $rsp 8 +
STACK CFI INIT 426d8 68e .cfa: $rsp 8 + .ra: .cfa -8 + ^
STACK CFI 426d9 $rbp: .cfa -16 + ^ .cfa: $rsp 16 +
STACK CFI 426dc .cfa: $rbp 16 +
STACK CFI 426e6 $r12: .cfa -24 + ^ $rbx: .cfa -32 + ^
STACK CFI 42d65 .cfa: $rsp 8 +
STACK CFI INIT 42d66 1fb .cfa: $rsp 8 + .ra: .cfa -8 + ^
STACK CFI 42d67 $rbp: .cfa -16 + ^ .cfa: $rsp 16 +
STACK CFI 42d6a .cfa: $rbp 16 +
STACK CFI 42d72 $rbx: .cfa -24 + ^
STACK CFI 42f60 .cfa: $rsp 8 +
STACK CFI INIT 42f62 4c .cfa: $rsp 8 + .ra: .cfa -8 + ^
STACK CFI 42f63 $rbp: .cfa -16 + ^ .cfa: $rsp 16 +
STACK CFI 42f66 .cfa: $rbp 16 +
STACK CFI 42fad .cfa: $rsp 8 +
STACK CFI INIT 42fae 169 .cfa: $rsp 8 + .ra: .cfa -8 + ^
STACK CFI 42faf $rbp: .cfa -16 + ^ .cfa: $rsp 16 +
STACK CFI 42fb2 .cfa: $rbp 16 +
STACK CFI 42fb7 $rbx: .cfa -24 + ^
